(dp1
S'output'
p2
S"<class 'gluon.contrib.simplejson.decoder.JSONDecodeError'> No JSON object could be decoded: line 1 column 0 (char 0)"
p3
sS'layer'
p4
S'/home/chad/web2py/applications/wm/controllers/default.py'
p5
sS'code'
p6
S"# -*- coding: utf-8 -*-\n### required - do no delete\nfrom datetime import date\n\ndef user(): return dict(form=auth())\ndef download(): return response.download(request,db)\ndef call(): return service()\n### end requires\ndef index():\n\treturn dict()\n\ndef error():\n    return dict()\n\n@auth.requires_login()\ndef building_manage():\n    return dict()\n\n@auth.requires_login()\ndef floor_manage():\n    return dict()\n\n@auth.requires_login()\ndef apartment_manage():\n    return dict()\n\n@auth.requires_login()\ndef apartment_type_manage():\n    return dict()\n\n@auth.requires_login()\ndef user_info_manage():\n    return dict()\n\n@auth.requires_login()\ndef contract_manage():\n    return dict()\n\n@auth.requires_login()\ndef semester_manage():\n    return dict()\n\n@auth.requires_login()\ndef parking_manage():\n    return dict()\n\n@auth.requires_login()\ndef request_manage():\n    return dict()\n\n@auth.requires_login()\ndef request_comments_manage():\n    return dict()\n\n@auth.requires_login()\ndef request_type_manage():\n    return dict()\n\n@auth.requires_login()\ndef room_manage():\n    return dict()\n\n@auth.requires_login()\ndef room_type_manage():\n    return dict()\n\ndef contract():\n    #form = SQLFORM.factory(db.t_user_info)\n    #form += SQLFORM.factory(db.t_apartment)\n    #form += SQLFORM.factory(db.t_building)\n    return dict(year=(date.today().year))\n\n#  NOT FINISHED\n# this function is to display a contract in a printable format\ndef display_full_contract(id):\n    return\n\n# About us page\ndef about():\n\treturn dict()\n\n# Contact page\ndef contact():\n\treturn dict()\n\n@auth.requires_login()\ndef t_building_manage():\n    form = SQLFORM(db.t_building)\n    if form.process().accepted:\n        response.flash = 'form accepted';\n    elif form.errors:\n        response.flash = 'form has errors'\n    else:\n        response.flash = 'please fill out the form'\n    return dict(form=form)\n\n@auth.requires_login()\ndef t_floor_manage():\n    form = SQLFORM(db.t_floor)\n    if form.process().accepted:\n        response.flash = 'form accepted';\n    elif form.errors:\n        response.flash = 'form has errors'\n    else:\n        response.flash = 'please fill out the form'\n    return dict(form=form)\n\n@auth.requires_login()\ndef t_apartment_manage():\n    form = SQLFORM(db.t_apartment)\n    # .smartgrid(db.t_t_building,onupdate=auth.archive)\n    if form.process().accepted:\n        response.flash = 'form accepted';\n    elif form.errors:\n        response.flash = 'form has errors'\n    else:\n        response.flash = 'please fill out the form'\n    return dict(form=form)\n\n@auth.requires_login()\ndef t_apartment_type_manage():\n    form = SQLFORM(db.t_apartment_type)\n    if form.process().accepted:\n        response.flash = 'form accepted';\n    elif form.errors:\n        response.flash = 'form has errors'\n    else:\n        response.flash = 'please fill out the form'\n    return dict(form=form)\n\n\n@auth.requires_login()\ndef t_user_info_manage():\n    form = SQLFORM(db.t_user_info)\n    return form\n\n@auth.requires_login()\ndef t_contract_manage():\n    form = SQLFORM(db.t_contract)\n    # .smartgrid(db.t_t_building,onupdate=auth.archive)\n    if form.process().accepted:\n        response.flash = 'form accepted';\n    elif form.errors:\n        response.flash = 'form has errors'\n    else:\n        response.flash = 'please fill out the form'\n    return dict(form=form)\n\n@auth.requires_login()\ndef t_semester_manage():\n    form = SQLFORM(db.t_semester)\n    # .smartgrid(db.t_t_building,onupdate=auth.archive)\n    if form.process().accepted:\n        response.flash = 'form accepted';\n    elif form.errors:\n        response.flash = 'form has errors'\n    else:\n        response.flash = 'please fill out the form'\n    return dict(form=form)\n\n\n@auth.requires_login()\ndef t_parking_manage():\n    form = SQLFORM(db.t_parking)\n    # .smartgrid(db.t_t_building,onupdate=auth.archive)\n    if form.process().accepted:\n        response.flash = 'form accepted';\n    elif form.errors:\n        response.flash = 'form has errors'\n    else:\n        response.flash = 'please fill out the form'\n    return dict(form=form)\n\n@auth.requires_login()\ndef t_request_manage():\n    form = SQLFORM(db.t_request)\n    # .smartgrid(db.t_t_building,onupdate=auth.archive)\n    if form.process().accepted:\n        response.flash = 'form accepted';\n    elif form.errors:\n        response.flash = 'form has errors'\n    else:\n        response.flash = 'please fill out the form'\n    return dict(form=form)\n\n\n@auth.requires_login()\ndef t_request_comments_manage():\n    form = SQLFORM(db.t_request_comments)\n    # .smartgrid(db.t_t_building,onupdate=auth.archive)\n    if form.process().accepted:\n        response.flash = 'form accepted';\n    elif form.errors:\n        response.flash = 'form has errors'\n    else:\n        response.flash = 'please fill out the form'\n    return dict(form=form)\n\n\n@auth.requires_login()\ndef t_request_type_manage():\n    form = SQLFORM(db.t_request_type)\n    # .smartgrid(db.t_t_building,onupdate=auth.archive)\n    if form.process().accepted:\n        response.flash = 'form accepted';\n    elif form.errors:\n        response.flash = 'form has errors'\n    else:\n        response.flash = 'please fill out the form'\n    return dict(form=form)\n\n@auth.requires_login()\ndef t_room_manage():\n    form = SQLFORM(db.t_room)\n    # .smartgrid(db.t_t_building,onupdate=auth.archive)\n    if form.process().accepted:\n        response.flash = 'form accepted';\n    elif form.errors:\n        response.flash = 'form has errors'\n    else:\n        response.flash = 'please fill out the form'\n    return dict(form=form)\n\n\n@auth.requires_login()\ndef t_room_type_manage():\n    form = SQLFORM(db.t_room_type)\n    # .smartgrid(db.t_t_building,onupdate=auth.archive)\n    if form.process().accepted:\n        response.flash = 'form accepted';\n    elif form.errors:\n        response.flash = 'form has errors'\n    else:\n        response.flash = 'please fill out the form'\n    return dict(form=form)\n\ndef getAvailables():\n    import gluon.contrib.simplejson\n    data = gluon.contrib.simplejson.loads(request.body.read())\n    return 100;\n\nresponse._vars=response._caller(getAvailables)\n"
p7
sS'snapshot'
p8
(dp9
S'exception'
p10
(dp11
S'__module__'
p12
S"'gluon.contrib.simplejson.decoder'"
p13
sS'__getslice__'
p14
S"<method-wrapper '__getslice__' of JSONDecodeError object>"
p15
sS'__str__'
p16
S"<method-wrapper '__str__' of JSONDecodeError object>"
p17
sS'__reduce__'
p18
S'<built-in method __reduce__ of JSONDecodeError object>'
p19
sS'pos'
p20
S'0'
sS'endlineno'
p21
S'None'
p22
sS'__dict__'
p23
S"{'colno': 0, 'doc': '', 'end': None, 'endcolno': None, 'endlineno': None, 'lineno': 1, 'msg': 'No JSON object could be decoded', 'pos': 0}"
p24
sS'__sizeof__'
p25
S'<built-in method __sizeof__ of JSONDecodeError object>'
p26
sS'__weakref__'
p27
S'None'
p28
sS'__init__'
p29
S"<bound method JSONDecodeError.__init__ of JSONDe...ct could be decoded: line 1 column 0 (char 0)',)>"
p30
sS'__setattr__'
p31
S"<method-wrapper '__setattr__' of JSONDecodeError object>"
p32
sS'__reduce_ex__'
p33
S'<built-in method __reduce_ex__ of JSONDecodeError object>'
p34
sS'end'
p35
S'None'
p36
sS'__new__'
p37
S'<built-in method __new__ of type object>'
p38
sS'__format__'
p39
S'<built-in method __format__ of JSONDecodeError object>'
p40
sS'__class__'
p41
S"<class 'gluon.contrib.simplejson.decoder.JSONDecodeError'>"
p42
sS'lineno'
p43
S'1'
sS'msg'
p44
S"'No JSON object could be decoded'"
p45
sS'__doc__'
p46
S"'Subclass of ValueError with the following additi...e column corresponding to end (may be None)\\n\\n    '"
p47
sS'__getitem__'
p48
S"<method-wrapper '__getitem__' of JSONDecodeError object>"
p49
sS'__setstate__'
p50
S'<built-in method __setstate__ of JSONDecodeError object>'
p51
sS'__getattribute__'
p52
S"<method-wrapper '__getattribute__' of JSONDecodeError object>"
p53
sS'args'
p54
S"('No JSON object could be decoded: line 1 column 0 (char 0)',)"
p55
sS'__subclasshook__'
p56
S'<built-in method __subclasshook__ of type object>'
p57
sS'colno'
p58
S'0'
sS'__unicode__'
p59
S'<built-in method __unicode__ of JSONDecodeError object>'
p60
sS'doc'
p61
S"''"
p62
sS'endcolno'
p63
S'None'
p64
sS'__delattr__'
p65
S"<method-wrapper '__delattr__' of JSONDecodeError object>"
p66
sS'__repr__'
p67
S"<method-wrapper '__repr__' of JSONDecodeError object>"
p68
sS'__hash__'
p69
S"<method-wrapper '__hash__' of JSONDecodeError object>"
p70
ssS'evalue'
p71
S'No JSON object could be decoded: line 1 column 0 (char 0)'
p72
sS'request'
p73
cgluon.html
XML_unpickle
p74
(S's\xedZ\x00\x00<div><table><tr><td style="font-weight:bold;vertical-align:top;">ajax</td><td style="vertical-align:top;">:</td><td><div>True</div></td></tr><tr><td style="font-weight:bold;vertical-align:top;">application</td><td style="vertical-align:top;">:</td><td><div>wm</div></td></tr><tr><td style="font-weight:bold;vertical-align:top;">args</td><td style="vertical-align:top;">:</td><td><div><table></table></div></td></tr><tr><td style="font-weight:bold;vertical-align:top;">cid</td><td style="vertical-align:top;">:</td><td><div>None</div></td></tr><tr><td style="font-weight:bold;vertical-align:top;">client</td><td style="vertical-align:top;">:</td><td><div>127.0.0.1</div></td></tr><tr><td style="font-weight:bold;vertical-align:top;">controller</td><td style="vertical-align:top;">:</td><td><div>default</div></td></tr><tr><td style="font-weight:bold;vertical-align:top;">cookies</td><td style="vertical-align:top;">:</td><td><div><table><tr><td style="font-weight:bold;vertical-align:top;">session_id_admin</td><td style="vertical-align:top;">:</td><td><div>127.0.0.1-ea31c577-b274-4a1e-b109-feed5b6b606a<table><tr><td style="font-weight:bold;vertical-align:top;">comment</td><td style="vertical-align:top;">:</td><td><div></div></td></tr><tr><td style="font-weight:bold;vertical-align:top;">domain</td><td style="vertical-align:top;">:</td><td><div></div></td></tr><tr><td style="font-weight:bold;vertical-align:top;">expires</td><td style="vertical-align:top;">:</td><td><div></div></td></tr><tr><td style="font-weight:bold;vertical-align:top;">httponly</td><td style="vertical-align:top;">:</td><td><div></div></td></tr><tr><td style="font-weight:bold;vertical-align:top;">max-age</td><td style="vertical-align:top;">:</td><td><div></div></td></tr><tr><td style="font-weight:bold;vertical-align:top;">path</td><td style="vertical-align:top;">:</td><td><div></div></td></tr><tr><td style="font-weight:bold;vertical-align:top;">secure</td><td style="vertical-align:top;">:</td><td><div></div></td></tr><tr><td style="font-weight:bold;vertical-align:top;">version</td><td style="vertical-align:top;">:</td><td><div></div></td></tr></table></div></td></tr><tr><td style="font-weight:bold;vertical-align:top;">session_id_welcome</td><td style="vertical-align:top;">:</td><td><div>127.0.0.1-660fe7ab-8345-43e6-bbe3-3f9a5ce4b617<table><tr><td style="font-weight:bold;vertical-align:top;">comment</td><td style="vertical-align:top;">:</td><td><div></div></td></tr><tr><td style="font-weight:bold;vertical-align:top;">domain</td><td style="vertical-align:top;">:</td><td><div></div></td></tr><tr><td style="font-weight:bold;vertical-align:top;">expires</td><td style="vertical-align:top;">:</td><td><div></div></td></tr><tr><td style="font-weight:bold;vertical-align:top;">httponly</td><td style="vertical-align:top;">:</td><td><div></div></td></tr><tr><td style="font-weight:bold;vertical-align:top;">max-age</td><td style="vertical-align:top;">:</td><td><div></div></td></tr><tr><td style="font-weight:bold;vertical-align:top;">path</td><td style="vertical-align:top;">:</td><td><div></div></td></tr><tr><td style="font-weight:bold;vertical-align:top;">secure</td><td style="vertical-align:top;">:</td><td><div></div></td></tr><tr><td style="font-weight:bold;vertical-align:top;">version</td><td style="vertical-align:top;">:</td><td><div></div></td></tr></table></div></td></tr><tr><td style="font-weight:bold;vertical-align:top;">session_id_wm</td><td style="vertical-align:top;">:</td><td><div>127.0.0.1-ea7080ae-efbd-4189-8b33-c76b2af08d7a<table><tr><td style="font-weight:bold;vertical-align:top;">comment</td><td style="vertical-align:top;">:</td><td><div></div></td></tr><tr><td style="font-weight:bold;vertical-align:top;">domain</td><td style="vertical-align:top;">:</td><td><div></div></td></tr><tr><td style="font-weight:bold;vertical-align:top;">expires</td><td style="vertical-align:top;">:</td><td><div></div></td></tr><tr><td style="font-weight:bold;vertical-align:top;">httponly</td><td style="vertical-align:top;">:</td><td><div></div></td></tr><tr><td style="font-weight:bold;vertical-align:top;">max-age</td><td style="vertical-align:top;">:</td><td><div></div></td></tr><tr><td style="font-weight:bold;vertical-align:top;">path</td><td style="vertical-align:top;">:</td><td><div></div></td></tr><tr><td style="font-weight:bold;vertical-align:top;">secure</td><td style="vertical-align:top;">:</td><td><div></div></td></tr><tr><td style="font-weight:bold;vertical-align:top;">version</td><td style="vertical-align:top;">:</td><td><div></div></td></tr></table></div></td></tr></table></div></td></tr><tr><td style="font-weight:bold;vertical-align:top;">env</td><td style="vertical-align:top;">:</td><td><div><table><tr><td style="font-weight:bold;vertical-align:top;">HTTP_ACCEPT</td><td style="vertical-align:top;">:</td><td><div>*/*</div></td></tr><tr><td style="font-weight:bold;vertical-align:top;">HTTP_ACCEPT_ENCODING</td><td style="vertical-align:top;">:</td><td><div>gzip, deflate</div></td></tr><tr><td style="font-weight:bold;vertical-align:top;">HTTP_ACCEPT_LANGUAGE</td><td style="vertical-align:top;">:</td><td><div>en-US,en;q=0.5</div></td></tr><tr><td style="font-weight:bold;vertical-align:top;">HTTP_CACHE_CONTROL</td><td style="vertical-align:top;">:</td><td><div>max-age=0</div></td></tr><tr><td style="font-weight:bold;vertical-align:top;">HTTP_CONNECTION</td><td style="vertical-align:top;">:</td><td><div>keep-alive</div></td></tr><tr><td style="font-weight:bold;vertical-align:top;">HTTP_COOKIE</td><td style="vertical-align:top;">:</td><td><div>session_id_welcome=127.0.0.1-660fe7ab-8345-43e6-bbe3-3f9a5ce4b617; session_id_admin=127.0.0.1-ea31c577-b274-4a1e-b109-feed5b6b606a; session_id_wm=127.0.0.1-ea7080ae-efbd-4189-8b33-c76b2af08d7a</div></td></tr><tr><td style="font-weight:bold;vertical-align:top;">HTTP_HOST</td><td style="vertical-align:top;">:</td><td><div>127.0.0.1:8000</div></td></tr><tr><td style="font-weight:bold;vertical-align:top;">HTTP_REFERER</td><td style="vertical-align:top;">:</td><td><div>http://127.0.0.1:8000/wm/default/contract</div></td></tr><tr><td style="font-weight:bold;vertical-align:top;">HTTP_USER_AGENT</td><td style="vertical-align:top;">:</td><td><div>Mozilla/5.0 (X11; Ubuntu; Linux x86_64; rv:30.0) Gecko/20100101 Firefox/30.0</div></td></tr><tr><td style="font-weight:bold;vertical-align:top;">HTTP_X_REQUESTED_WITH</td><td style="vertical-align:top;">:</td><td><div>XMLHttpRequest</div></td></tr><tr><td style="font-weight:bold;vertical-align:top;">PATH_INFO</td><td style="vertical-align:top;">:</td><td><div>/wm/default/getAvailables</div></td></tr><tr><td style="font-weight:bold;vertical-align:top;">QUERY_STRING</td><td style="vertical-align:top;">:</td><td><div>year=</div></td></tr><tr><td style="font-weight:bold;vertical-align:top;">REMOTE_ADDR</td><td style="vertical-align:top;">:</td><td><div>127.0.0.1</div></td></tr><tr><td style="font-weight:bold;vertical-align:top;">REMOTE_PORT</td><td style="vertical-align:top;">:</td><td><div>48439</div></td></tr><tr><td style="font-weight:bold;vertical-align:top;">REQUEST_METHOD</td><td style="vertical-align:top;">:</td><td><div>GET</div></td></tr><tr><td style="font-weight:bold;vertical-align:top;">SCRIPT_NAME</td><td style="vertical-align:top;">:</td><td><div></div></td></tr><tr><td style="font-weight:bold;vertical-align:top;">SERVER_NAME</td><td style="vertical-align:top;">:</td><td><div>Link</div></td></tr><tr><td style="font-weight:bold;vertical-align:top;">SERVER_PORT</td><td style="vertical-align:top;">:</td><td><div>8000</div></td></tr><tr><td style="font-weight:bold;vertical-align:top;">SERVER_PROTOCOL</td><td style="vertical-align:top;">:</td><td><div>HTTP/1.1</div></td></tr><tr><td style="font-weight:bold;vertical-align:top;">SERVER_SOFTWARE</td><td style="vertical-align:top;">:</td><td><div>Rocket 1.2.6</div></td></tr><tr><td style="font-weight:bold;vertical-align:top;">app_folders</td><td style="vertical-align:top;">:</td><td><div>set([&#x27;/home/chad/web2py/applications/wm/&#x27;, &#x27;/home/chad/web2py/applications/admin/&#x27;, &#x27;/home/chad/web2py/applications/welcome/&#x27;])</div></td></tr><tr><td style="font-weight:bold;vertical-align:top;">applications_parent</td><td style="vertical-align:top;">:</td><td><div>/home/chad/web2py</div></td></tr><tr><td style="font-weight:bold;vertical-align:top;">cmd_args</td><td style="vertical-align:top;">:</td><td><div><table></table></div></td></tr><tr><td style="font-weight:bold;vertical-align:top;">cmd_options</td><td style="vertical-align:top;">:</td><td><div>&lt;Values at 0x1c14710: {&#x27;verbose&#x27;: False, &#x27;ip&#x27;: &#x27;127.0.0.1&#x27;, &#x27;debuglevel&#x27;: 30, &#x27;with_scheduler&#x27;: False, &#x27;ips&#x27;: [&#x27;127.0.1.1&#x27;], &#x27;shutdown_timeout&#x27;: 5, &#x27;taskbar&#x27;: False, &#x27;with_coverage&#x27;: False, &#x27;port&#x27;: 8000, &#x27;maxthreads&#x27;: None, &#x27;softcron&#x27;: False, &#x27;server_name&#x27;: &#x27;Link&#x27;, &#x27;bpython&#x27;: False, &#x27;nogui&#x27;: False, &#x27;pid_filename&#x27;: &#x27;httpserver.pid&#x27;, &#x27;extcron&#x27;: False, &#x27;runcron&#x27;: False, &#x27;run_system_tests&#x27;: False, &#x27;test&#x27;: None, &#x27;folder&#x27;: &#x27;/home/chad/web2py&#x27;, &#x27;config&#x27;: &#x27;&#x27;, &#x27;minthreads&#x27;: None, &#x27;shell&#x27;: None, &#x27;run&#x27;: &#x27;&#x27;, &#x27;log_filename&#x27;: &#x27;httpserver.log&#x27;, &#x27;profiler_dir&#x27;: None, &#x27;args&#x27;: [&#x27;&#x27;], &#x27;socket_timeout&#x27;: 5, &#x27;ssl_ca_certificate&#x27;: None, &#x27;scheduler&#x27;: None, &#x27;interfaces&#x27;: None, &#x27;ssl_private_key&#x27;: &#x27;&#x27;, &#x27;scheduler_groups&#x27;: None, &#x27;password&#x27;: &#x27;&lt;ask&gt;&#x27;, &#x27;request_queue_size&#x27;: 5, &#x27;ssl_certificate&#x27;: &#x27;&#x27;, &#x27;cronjob&#x27;: False, &#x27;numthreads&#x27;: None, &#x27;quiet&#x27;: False, &#x27;import_models&#x27;: False, &#x27;timeout&#x27;: 10, &#x27;plain&#x27;: False, &#x27;nobanner&#x27;: False}&gt;</div></td></tr><tr><td style="font-weight:bold;vertical-align:top;">db_sessions</td><td style="vertical-align:top;">:</td><td><div>set([])</div></td></tr><tr><td style="font-weight:bold;vertical-align:top;">debugging</td><td style="vertical-align:top;">:</td><td><div>False</div></td></tr><tr><td style="font-weight:bold;vertical-align:top;">gluon_parent</td><td style="vertical-align:top;">:</td><td><div>/home/chad/web2py</div></td></tr><tr><td style="font-weight:bold;vertical-align:top;">http_accept</td><td style="vertical-align:top;">:</td><td><div>*/*</div></td></tr><tr><td style="font-weight:bold;vertical-align:top;">http_accept_encoding</td><td style="vertical-align:top;">:</td><td><div>gzip, deflate</div></td></tr><tr><td style="font-weight:bold;vertical-align:top;">http_accept_language</td><td style="vertical-align:top;">:</td><td><div>en-US,en;q=0.5</div></td></tr><tr><td style="font-weight:bold;vertical-align:top;">http_cache_control</td><td style="vertical-align:top;">:</td><td><div>max-age=0</div></td></tr><tr><td style="font-weight:bold;vertical-align:top;">http_connection</td><td style="vertical-align:top;">:</td><td><div>keep-alive</div></td></tr><tr><td style="font-weight:bold;vertical-align:top;">http_cookie</td><td style="vertical-align:top;">:</td><td><div>session_id_welcome=127.0.0.1-660fe7ab-8345-43e6-bbe3-3f9a5ce4b617; session_id_admin=127.0.0.1-ea31c577-b274-4a1e-b109-feed5b6b606a; session_id_wm=127.0.0.1-ea7080ae-efbd-4189-8b33-c76b2af08d7a</div></td></tr><tr><td style="font-weight:bold;vertical-align:top;">http_host</td><td style="vertical-align:top;">:</td><td><div>127.0.0.1:8000</div></td></tr><tr><td style="font-weight:bold;vertical-align:top;">http_referer</td><td style="vertical-align:top;">:</td><td><div>http://127.0.0.1:8000/wm/default/contract</div></td></tr><tr><td style="font-weight:bold;vertical-align:top;">http_user_agent</td><td style="vertical-align:top;">:</td><td><div>Mozilla/5.0 (X11; Ubuntu; Linux x86_64; rv:30.0) Gecko/20100101 Firefox/30.0</div></td></tr><tr><td style="font-weight:bold;vertical-align:top;">http_x_requested_with</td><td style="vertical-align:top;">:</td><td><div>XMLHttpRequest</div></td></tr><tr><td style="font-weight:bold;vertical-align:top;">is_jython</td><td style="vertical-align:top;">:</td><td><div>False</div></td></tr><tr><td style="font-weight:bold;vertical-align:top;">is_pypy</td><td style="vertical-align:top;">:</td><td><div>False</div></td></tr><tr><td style="font-weight:bold;vertical-align:top;">is_source</td><td style="vertical-align:top;">:</td><td><div>True</div></td></tr><tr><td style="font-weight:bold;vertical-align:top;">local_hosts</td><td style="vertical-align:top;">:</td><td><div><table><tr><td><div>::1</div></td></tr><tr><td><div>127.0.1.1</div></td></tr><tr><td><div>Link</div></td></tr><tr><td><div>::ffff:127.0.0.1</div></td></tr><tr><td><div>127.0.0.1</div></td></tr></table></div></td></tr><tr><td style="font-weight:bold;vertical-align:top;">path_info</td><td style="vertical-align:top;">:</td><td><div>/wm/default/getAvailables</div></td></tr><tr><td style="font-weight:bold;vertical-align:top;">query_string</td><td style="vertical-align:top;">:</td><td><div>year=</div></td></tr><tr><td style="font-weight:bold;vertical-align:top;">remote_addr</td><td style="vertical-align:top;">:</td><td><div>127.0.0.1</div></td></tr><tr><td style="font-weight:bold;vertical-align:top;">remote_port</td><td style="vertical-align:top;">:</td><td><div>48439</div></td></tr><tr><td style="font-weight:bold;vertical-align:top;">request_method</td><td style="vertical-align:top;">:</td><td><div>GET</div></td></tr><tr><td style="font-weight:bold;vertical-align:top;">request_uri</td><td style="vertical-align:top;">:</td><td><div>/wm/default/getAvailables?year=</div></td></tr><tr><td style="font-weight:bold;vertical-align:top;">script_name</td><td style="vertical-align:top;">:</td><td><div></div></td></tr><tr><td style="font-weight:bold;vertical-align:top;">server_name</td><td style="vertical-align:top;">:</td><td><div>Link</div></td></tr><tr><td style="font-weight:bold;vertical-align:top;">server_port</td><td style="vertical-align:top;">:</td><td><div>8000</div></td></tr><tr><td style="font-weight:bold;vertical-align:top;">server_protocol</td><td style="vertical-align:top;">:</td><td><div>HTTP/1.1</div></td></tr><tr><td style="font-weight:bold;vertical-align:top;">server_software</td><td style="vertical-align:top;">:</td><td><div>Rocket 1.2.6</div></td></tr><tr><td style="font-weight:bold;vertical-align:top;">web2py_path</td><td style="vertical-align:top;">:</td><td><div>/home/chad/web2py</div></td></tr><tr><td style="font-weight:bold;vertical-align:top;">web2py_version</td><td style="vertical-align:top;">:</td><td><div>2.9.5-stable+timestamp.2014.03.16.02.35.39</div></td></tr><tr><td style="font-weight:bold;vertical-align:top;">wsgi.errors</td><td style="vertical-align:top;">:</td><td><div>&lt;open file &#x27;&lt;stderr&gt;&#x27;, mode &#x27;w&#x27; at 0x7fcae62c2270&gt;</div></td></tr><tr><td style="font-weight:bold;vertical-align:top;">wsgi.file_wrapper</td><td style="vertical-align:top;">:</td><td><div>&lt;class wsgiref.util.FileWrapper at 0x1b80e20&gt;</div></td></tr><tr><td style="font-weight:bold;vertical-align:top;">wsgi.input</td><td style="vertical-align:top;">:</td><td><div>&lt;socket._fileobject object at 0x7fcab8f58550&gt;</div></td></tr><tr><td style="font-weight:bold;vertical-align:top;">wsgi.multiprocess</td><td style="vertical-align:top;">:</td><td><div>False</div></td></tr><tr><td style="font-weight:bold;vertical-align:top;">wsgi.multithread</td><td style="vertical-align:top;">:</td><td><div>True</div></td></tr><tr><td style="font-weight:bold;vertical-align:top;">wsgi.run_once</td><td style="vertical-align:top;">:</td><td><div>False</div></td></tr><tr><td style="font-weight:bold;vertical-align:top;">wsgi.url_scheme</td><td style="vertical-align:top;">:</td><td><div>http</div></td></tr><tr><td style="font-weight:bold;vertical-align:top;">wsgi.version</td><td style="vertical-align:top;">:</td><td><div><table><tr><td><div>1</div></td></tr><tr><td><div>0</div></td></tr></table></div></td></tr><tr><td style="font-weight:bold;vertical-align:top;">wsgi_errors</td><td style="vertical-align:top;">:</td><td><div>&lt;open file &#x27;&lt;stderr&gt;&#x27;, mode &#x27;w&#x27; at 0x7fcae62c2270&gt;</div></td></tr><tr><td style="font-weight:bold;vertical-align:top;">wsgi_file_wrapper</td><td style="vertical-align:top;">:</td><td><div>&lt;class wsgiref.util.FileWrapper at 0x1b80e20&gt;</div></td></tr><tr><td style="font-weight:bold;vertical-align:top;">wsgi_input</td><td style="vertical-align:top;">:</td><td><div>&lt;socket._fileobject object at 0x7fcab8f58550&gt;</div></td></tr><tr><td style="font-weight:bold;vertical-align:top;">wsgi_multiprocess</td><td style="vertical-align:top;">:</td><td><div>False</div></td></tr><tr><td style="font-weight:bold;vertical-align:top;">wsgi_multithread</td><td style="vertical-align:top;">:</td><td><div>True</div></td></tr><tr><td style="font-weight:bold;vertical-align:top;">wsgi_run_once</td><td style="vertical-align:top;">:</td><td><div>False</div></td></tr><tr><td style="font-weight:bold;vertical-align:top;">wsgi_url_scheme</td><td style="vertical-align:top;">:</td><td><div>http</div></td></tr><tr><td style="font-weight:bold;vertical-align:top;">wsgi_version</td><td style="vertical-align:top;">:</td><td><div><table><tr><td><div>1</div></td></tr><tr><td><div>0</div></td></tr></table></div></td></tr></table></div></td></tr><tr><td style="font-weight:bold;vertical-align:top;">extension</td><td style="vertical-align:top;">:</td><td><div>html</div></td></tr><tr><td style="font-weight:bold;vertical-align:top;">folder</td><td style="vertical-align:top;">:</td><td><div>/home/chad/web2py/applications/wm/</div></td></tr><tr><td style="font-weight:bold;vertical-align:top;">function</td><td style="vertical-align:top;">:</td><td><div>getAvailables</div></td></tr><tr><td style="font-weight:bold;vertical-align:top;">global_settings</td><td style="vertical-align:top;">:</td><td><div><table><tr><td style="font-weight:bold;vertical-align:top;">app_folders</td><td style="vertical-align:top;">:</td><td><div>set([&#x27;/home/chad/web2py/applications/wm/&#x27;, &#x27;/home/chad/web2py/applications/admin/&#x27;, &#x27;/home/chad/web2py/applications/welcome/&#x27;])</div></td></tr><tr><td style="font-weight:bold;vertical-align:top;">applications_parent</td><td style="vertical-align:top;">:</td><td><div>/home/chad/web2py</div></td></tr><tr><td style="font-weight:bold;vertical-align:top;">cmd_args</td><td style="vertical-align:top;">:</td><td><div><table></table></div></td></tr><tr><td style="font-weight:bold;vertical-align:top;">cmd_options</td><td style="vertical-align:top;">:</td><td><div>&lt;Values at 0x1c14710: {&#x27;verbose&#x27;: False, &#x27;ip&#x27;: &#x27;127.0.0.1&#x27;, &#x27;debuglevel&#x27;: 30, &#x27;with_scheduler&#x27;: False, &#x27;ips&#x27;: [&#x27;127.0.1.1&#x27;], &#x27;shutdown_timeout&#x27;: 5, &#x27;taskbar&#x27;: False, &#x27;with_coverage&#x27;: False, &#x27;port&#x27;: 8000, &#x27;maxthreads&#x27;: None, &#x27;softcron&#x27;: False, &#x27;server_name&#x27;: &#x27;Link&#x27;, &#x27;bpython&#x27;: False, &#x27;nogui&#x27;: False, &#x27;pid_filename&#x27;: &#x27;httpserver.pid&#x27;, &#x27;extcron&#x27;: False, &#x27;runcron&#x27;: False, &#x27;run_system_tests&#x27;: False, &#x27;test&#x27;: None, &#x27;folder&#x27;: &#x27;/home/chad/web2py&#x27;, &#x27;config&#x27;: &#x27;&#x27;, &#x27;minthreads&#x27;: None, &#x27;shell&#x27;: None, &#x27;run&#x27;: &#x27;&#x27;, &#x27;log_filename&#x27;: &#x27;httpserver.log&#x27;, &#x27;profiler_dir&#x27;: None, &#x27;args&#x27;: [&#x27;&#x27;], &#x27;socket_timeout&#x27;: 5, &#x27;ssl_ca_certificate&#x27;: None, &#x27;scheduler&#x27;: None, &#x27;interfaces&#x27;: None, &#x27;ssl_private_key&#x27;: &#x27;&#x27;, &#x27;scheduler_groups&#x27;: None, &#x27;password&#x27;: &#x27;&lt;ask&gt;&#x27;, &#x27;request_queue_size&#x27;: 5, &#x27;ssl_certificate&#x27;: &#x27;&#x27;, &#x27;cronjob&#x27;: False, &#x27;numthreads&#x27;: None, &#x27;quiet&#x27;: False, &#x27;import_models&#x27;: False, &#x27;timeout&#x27;: 10, &#x27;plain&#x27;: False, &#x27;nobanner&#x27;: False}&gt;</div></td></tr><tr><td style="font-weight:bold;vertical-align:top;">db_sessions</td><td style="vertical-align:top;">:</td><td><div>set([])</div></td></tr><tr><td style="font-weight:bold;vertical-align:top;">debugging</td><td style="vertical-align:top;">:</td><td><div>False</div></td></tr><tr><td style="font-weight:bold;vertical-align:top;">gluon_parent</td><td style="vertical-align:top;">:</td><td><div>/home/chad/web2py</div></td></tr><tr><td style="font-weight:bold;vertical-align:top;">is_jython</td><td style="vertical-align:top;">:</td><td><div>False</div></td></tr><tr><td style="font-weight:bold;vertical-align:top;">is_pypy</td><td style="vertical-align:top;">:</td><td><div>False</div></td></tr><tr><td style="font-weight:bold;vertical-align:top;">is_source</td><td style="vertical-align:top;">:</td><td><div>True</div></td></tr><tr><td style="font-weight:bold;vertical-align:top;">local_hosts</td><td style="vertical-align:top;">:</td><td><div><table><tr><td><div>::1</div></td></tr><tr><td><div>127.0.1.1</div></td></tr><tr><td><div>Link</div></td></tr><tr><td><div>::ffff:127.0.0.1</div></td></tr><tr><td><div>127.0.0.1</div></td></tr></table></div></td></tr><tr><td style="font-weight:bold;vertical-align:top;">web2py_version</td><td style="vertical-align:top;">:</td><td><div>2.9.5-stable+timestamp.2014.03.16.02.35.39</div></td></tr></table></div></td></tr><tr><td style="font-weight:bold;vertical-align:top;">is_https</td><td style="vertical-align:top;">:</td><td><div>False</div></td></tr><tr><td style="font-weight:bold;vertical-align:top;">is_local</td><td style="vertical-align:top;">:</td><td><div>True</div></td></tr><tr><td style="font-weight:bold;vertical-align:top;">is_restful</td><td style="vertical-align:top;">:</td><td><div>False</div></td></tr><tr><td style="font-weight:bold;vertical-align:top;">now</td><td style="vertical-align:top;">:</td><td><div>datetime.datetime(2014, 7, 10, 17, 23, 49, 404194)</div></td></tr><tr><td style="font-weight:bold;vertical-align:top;">raw_args</td><td style="vertical-align:top;">:</td><td><div></div></td></tr><tr><td style="font-weight:bold;vertical-align:top;">raw_extension</td><td style="vertical-align:top;">:</td><td><div>None</div></td></tr><tr><td style="font-weight:bold;vertical-align:top;">url</td><td style="vertical-align:top;">:</td><td><div>/wm/default/getAvailables</div></td></tr><tr><td style="font-weight:bold;vertical-align:top;">utcnow</td><td style="vertical-align:top;">:</td><td><div>datetime.datetime(2014, 7, 10, 23, 23, 49, 404227)</div></td></tr><tr><td style="font-weight:bold;vertical-align:top;">uuid</td><td style="vertical-align:top;">:</td><td><div>wm/127.0.0.1.2014-07-10.17-23-49.b3fa9ed6-e4ea-448c-b54c-566b4ca64142</div></td></tr><tr><td style="font-weight:bold;vertical-align:top;">wsgi</td><td style="vertical-align:top;">:</td><td><div>&lt;gluon.main.LazyWSGI object at 0x7fcac81dbf90&gt;</div></td></tr></table></div>'
tRp75
sS'frames'
p76
(lp77
(dp78
S'file'
p79
S'/home/chad/web2py/gluon/restricted.py'
p80
sS'dump'
p81
(dp82
S'environment'
p83
S"{'A': <class 'gluon.html.A'>, 'ANY_OF': <class 'gluon.validators.ANY_OF'>, 'Admin': <module 'applications.wm.modules.Admin' from 'applications/wm/modules/Admin.py'>, 'Auth': <class 'gluon.tools.Auth'>, 'B': <class 'gluon.html.B'>, 'BEAUTIFY': <class 'gluon.html.BEAUTIFY'>, 'BODY': <class 'gluon.html.BODY'>, 'BR': <class 'gluon.html.BR'>, 'BUTTON': <class 'gluon.html.BUTTON'>, 'CAT': <class 'gluon.html.CAT'>, ...}"
p84
sS'ccode'
p85
S'<code object <module> at 0x7fcabc26a2b0, file "/.../applications/wm/controllers/default.py", line 3>'
p86
ssS'lnum'
p87
I220
sS'lines'
p88
(dp89
I224
S'        # do not encapsulate (obfuscate) the original RestrictedError'
p90
sI215
S'    try:'
p91
sI216
S'        if isinstance(code, types.CodeType):'
p92
sI217
S'            ccode = code'
p93
sI218
S'        else:'
p94
sI219
S'            ccode = compile2(code, layer)'
p95
sI220
S'        exec ccode in environment'
p96
sI221
S'    except HTTP:'
p97
sI222
S'        raise'
p98
sI223
S'    except RestrictedError:'
p99
ssS'call'
p100
S"(code='# -*- coding: utf-8 -*-\\n### required - do no del...\\n\\nresponse._vars=response._caller(getAvailables)\\n', environment={'A': <class 'gluon.html.A'>, 'ANY_OF': <class 'gluon.validators.ANY_OF'>, 'Admin': <module 'applications.wm.modules.Admin' from 'applications/wm/modules/Admin.py'>, 'Auth': <class 'gluon.tools.Auth'>, 'B': <class 'gluon.html.B'>, 'BEAUTIFY': <class 'gluon.html.BEAUTIFY'>, 'BODY': <class 'gluon.html.BODY'>, 'BR': <class 'gluon.html.BR'>, 'BUTTON': <class 'gluon.html.BUTTON'>, 'CAT': <class 'gluon.html.CAT'>, ...}, layer='/home/chad/web2py/applications/wm/controllers/default.py')"
p101
sS'func'
p102
S'restricted'
p103
sa(dp104
g79
S'/home/chad/web2py/applications/wm/controllers/default.py'
p105
sg81
(dp106
sg87
I242
sg88
(dp107
I231
S'    elif form.errors:'
p108
sI232
S"        response.flash = 'form has errors'"
p109
sI233
S'    else:'
p110
sI234
S"        response.flash = 'please fill out the form'"
p111
sI235
S'    return dict(form=form)'
p112
sI236
S''
sI237
S'def getAvailables():'
p113
sI238
S'    import gluon.contrib.simplejson'
p114
sI239
S'    data = gluon.contrib.simplejson.loads(request.body.read())'
p115
sI240
S'    return 100;'
p116
ssg100
S'()'
p117
sg102
S'<module>'
p118
sa(dp119
g79
S'/home/chad/web2py/gluon/globals.py'
p120
sg81
(dp121
S'self'
p122
S'undefined'
p123
sS'f'
S'<function getAvailables>'
p124
ssg87
I385
sg88
(dp125
I384
S'        self._vars = None'
p126
sI385
S'        self._caller = lambda f: f()'
p127
sI386
S'        self._view_environment = None'
p128
sI387
S'        self._custom_commit = None'
p129
sI388
S'        self._custom_rollback = None'
p130
sI389
S''
sI380
S'        self.menu = []             # used by the default view layout'
p131
sI381
S'        self.files = []            # used by web2py_ajax.html'
p132
sI382
S'        self.generic_patterns = []  # patterns to allow generic views'
p133
sI383
S"        self.delimiters = ('{{', '}}')"
p134
ssg100
S'(f=<function getAvailables>)'
p135
sg102
S'<lambda>'
p136
sa(dp137
g79
S'/home/chad/web2py/applications/wm/controllers/default.py'
p138
sg81
(dp139
S'global request'
p140
S"<Storage {'_vars': None, 'function': 'getAvailab... 'folder': '/home/chad/web2py/applications/wm/'}>"
p141
sS'gluon.contrib.simplejson'
p142
S"<module 'gluon.contrib.simplejson' from '/home/chad/web2py/gluon/contrib/simplejson/__init__.pyc'>"
p143
sS'gluon.contrib'
p144
S"<module 'gluon.contrib' from '/home/chad/web2py/gluon/contrib/__init__.pyc'>"
p145
sS'request.body.read'
p146
S'<built-in method read of cStringIO.StringO object>'
p147
sS'request.body'
p148
S'<cStringIO.StringO object>'
p149
sS'gluon'
p150
S"<module 'gluon' from '/home/chad/web2py/gluon/__init__.pyc'>"
p151
sS'gluon.contrib.simplejson.loads'
p152
S'<function loads>'
p153
sS'data'
p154
g123
ssg87
I239
sg88
(dp155
I231
S'    elif form.errors:'
p156
sI232
S"        response.flash = 'form has errors'"
p157
sI233
S'    else:'
p158
sI234
S"        response.flash = 'please fill out the form'"
p159
sI235
S'    return dict(form=form)'
p160
sI236
S''
sI237
S'def getAvailables():'
p161
sI238
S'    import gluon.contrib.simplejson'
p162
sI239
S'    data = gluon.contrib.simplejson.loads(request.body.read())'
p163
sI240
S'    return 100;'
p164
ssg100
S'()'
p165
sg102
S'getAvailables'
p166
sa(dp167
g79
S'/home/chad/web2py/gluon/contrib/simplejson/__init__.py'
p168
sg81
(dp169
S's'
S"''"
p170
sS'global _default_decoder'
p171
S'<gluon.contrib.simplejson.decoder.JSONDecoder object>'
p172
sS'_default_decoder.decode'
p173
S'<bound method JSONDecoder.decode of <gluon.contrib.simplejson.decoder.JSONDecoder object>>'
p174
ssg87
I386
sg88
(dp175
I384
S'            parse_constant is None and object_pairs_hook is None'
p176
sI385
S'            and not use_decimal and not kw):'
p177
sI386
S'        return _default_decoder.decode(s)'
p178
sI387
S'    if cls is None:'
p179
sI388
S'        cls = JSONDecoder'
p180
sI389
S'    if object_hook is not None:'
p181
sI390
S"        kw['object_hook'] = object_hook"
p182
sI381
S'    """'
p183
sI382
S'    if (cls is None and encoding is None and object_hook is None and'
p184
sI383
S'            parse_int is None and parse_float is None and'
p185
ssg100
S"(s='', encoding=None, cls=None, object_hook=None, parse_float=None, parse_int=None, parse_constant=None, object_pairs_hook=None, use_decimal=False, **kw={})"
p186
sg102
S'loads'
p187
sa(dp188
g79
S'/home/chad/web2py/gluon/contrib/simplejson/decoder.py'
p189
sg81
(dp190
S').end'
p191
g123
sS'end'
p192
g123
sS'idx'
p193
g123
sS'_w'
p194
S'<built-in method match of _sre.SRE_Pattern object>'
p195
sS'self'
p196
S'<gluon.contrib.simplejson.decoder.JSONDecoder object>'
p197
sS's'
S"''"
p198
sS'self.raw_decode'
p199
S'<bound method JSONDecoder.raw_decode of <gluon.contrib.simplejson.decoder.JSONDecoder object>>'
p200
sS'obj'
p201
g123
ssg87
I403
sg88
(dp202
I398
S'    def decode(self, s, _w=WHITESPACE.match):'
p203
sI399
S'        """Return the Python representation of ``s`` (a ``str`` or ``unicode``'
p204
sI400
S'        instance containing a JSON document)'
p205
sI401
S''
sI402
S'        """'
p206
sI403
S'        obj, end = self.raw_decode(s, idx=_w(s, 0).end())'
p207
sI404
S'        end = _w(s, end).end()'
p208
sI405
S'        if end != len(s):'
p209
sI406
S'            raise JSONDecodeError("Extra data", s, end, len(s))'
p210
sI407
S'        return obj'
p211
ssg100
S"(self=<gluon.contrib.simplejson.decoder.JSONDecoder object>, s='', _w=<built-in method match of _sre.SRE_Pattern object>)"
p212
sg102
S'decode'
p213
sa(dp214
g79
S'/home/chad/web2py/gluon/contrib/simplejson/decoder.py'
p215
sg81
(dp216
S's'
S"''"
p217
sS'global JSONDecodeError'
p218
S"<class 'gluon.contrib.simplejson.decoder.JSONDecodeError'>"
p219
sS'idx'
p220
S'0'
ssg87
I421
sg88
(dp221
I416
S''
sI417
S'        """'
p222
sI418
S'        try:'
p223
sI419
S'            obj, end = self.scan_once(s, idx)'
p224
sI420
S'        except StopIteration:'
p225
sI421
S'            raise JSONDecodeError("No JSON object could be decoded", s, idx)'
p226
sI422
S'        return obj, end'
p227
sI423
S''
sI414
S'        This can be used to decode a JSON document from a string that may'
p228
sI415
S'        have extraneous data at the end.'
p229
ssg100
S"(self=<gluon.contrib.simplejson.decoder.JSONDecoder object>, s='', idx=0)"
p230
sg102
S'raw_decode'
p231
sasS'pyver'
p232
S'Python 2.7.3: /usr/bin/python (prefix: /usr)'
p233
sS'session'
p234
g74
(S's\x1a\x00\x00\x00<div><table></table></div>'
tRp235
sS'etype'
p236
S"<class 'gluon.contrib.simplejson.decoder.JSONDecodeError'>"
p237
sS'date'
p238
S'Thu Jul 10 17:23:49 2014'
p239
sS'response'
p240
g74
(S's\xb7\x1c\x00\x00<div><table><tr><td style="font-weight:bold;vertical-align:top;">body</td><td style="vertical-align:top;">:</td><td><div>&lt;cStringIO.StringO object at 0x7fcad0415f48&gt;</div></td></tr><tr><td style="font-weight:bold;vertical-align:top;">cookies</td><td style="vertical-align:top;">:</td><td><div><table><tr><td style="font-weight:bold;vertical-align:top;">session_id_wm</td><td style="vertical-align:top;">:</td><td><div>127.0.0.1-ea7080ae-efbd-4189-8b33-c76b2af08d7a<table><tr><td style="font-weight:bold;vertical-align:top;">comment</td><td style="vertical-align:top;">:</td><td><div></div></td></tr><tr><td style="font-weight:bold;vertical-align:top;">domain</td><td style="vertical-align:top;">:</td><td><div></div></td></tr><tr><td style="font-weight:bold;vertical-align:top;">expires</td><td style="vertical-align:top;">:</td><td><div></div></td></tr><tr><td style="font-weight:bold;vertical-align:top;">httponly</td><td style="vertical-align:top;">:</td><td><div></div></td></tr><tr><td style="font-weight:bold;vertical-align:top;">max-age</td><td style="vertical-align:top;">:</td><td><div></div></td></tr><tr><td style="font-weight:bold;vertical-align:top;">path</td><td style="vertical-align:top;">:</td><td><div>/</div></td></tr><tr><td style="font-weight:bold;vertical-align:top;">secure</td><td style="vertical-align:top;">:</td><td><div></div></td></tr><tr><td style="font-weight:bold;vertical-align:top;">version</td><td style="vertical-align:top;">:</td><td><div></div></td></tr></table></div></td></tr></table></div></td></tr><tr><td style="font-weight:bold;vertical-align:top;">delimiters</td><td style="vertical-align:top;">:</td><td><div><table><tr><td><div>{{</div></td></tr><tr><td><div>}}</div></td></tr></table></div></td></tr><tr><td style="font-weight:bold;vertical-align:top;">files</td><td style="vertical-align:top;">:</td><td><div><table></table></div></td></tr><tr><td style="font-weight:bold;vertical-align:top;">flash</td><td style="vertical-align:top;">:</td><td><div></div></td></tr><tr><td style="font-weight:bold;vertical-align:top;">generic_patterns</td><td style="vertical-align:top;">:</td><td><div><table><tr><td><div>*</div></td></tr></table></div></td></tr><tr><td style="font-weight:bold;vertical-align:top;">headers</td><td style="vertical-align:top;">:</td><td><div><table><tr><td style="font-weight:bold;vertical-align:top;">X-Powered-By</td><td style="vertical-align:top;">:</td><td><div>web2py</div></td></tr></table></div></td></tr><tr><td style="font-weight:bold;vertical-align:top;">menu</td><td style="vertical-align:top;">:</td><td><div><table><tr><td><div><table><tr><td><div>Home</div></td></tr><tr><td><div>False</div></td></tr><tr><td><div>/wm/default/index</div></td></tr><tr><td><div><table></table></div></td></tr></table></div></td></tr><tr><td><div><table><tr><td><div>Contracts</div></td></tr><tr><td><div>False</div></td></tr><tr><td><div>/wm/default/contract</div></td></tr><tr><td><div><table></table></div></td></tr></table></div></td></tr><tr><td><div><table><tr><td><div>About</div></td></tr><tr><td><div>False</div></td></tr><tr><td><div>/wm/default/about</div></td></tr><tr><td><div><table></table></div></td></tr></table></div></td></tr><tr><td><div><table><tr><td><div>Contact</div></td></tr><tr><td><div>False</div></td></tr><tr><td><div>/wm/default/contact</div></td></tr><tr><td><div><table></table></div></td></tr></table></div></td></tr></table></div></td></tr><tr><td style="font-weight:bold;vertical-align:top;">meta</td><td style="vertical-align:top;">:</td><td><div><table><tr><td style="font-weight:bold;vertical-align:top;">author</td><td style="vertical-align:top;">:</td><td><div>RBD-Center &lt;info@rbdcenter.org&gt;</div></td></tr><tr><td style="font-weight:bold;vertical-align:top;">description</td><td style="vertical-align:top;">:</td><td><div></div></td></tr><tr><td style="font-weight:bold;vertical-align:top;">keywords</td><td style="vertical-align:top;">:</td><td><div></div></td></tr></table></div></td></tr><tr><td style="font-weight:bold;vertical-align:top;">models_to_run</td><td style="vertical-align:top;">:</td><td><div><table><tr><td><div>^\\w+\\.py$</div></td></tr><tr><td><div>^default/\\w+\\.py$</div></td></tr><tr><td><div>^default/getAvailables/\\w+\\.py$</div></td></tr></table></div></td></tr><tr><td style="font-weight:bold;vertical-align:top;">postprocessing</td><td style="vertical-align:top;">:</td><td><div><table></table></div></td></tr><tr><td style="font-weight:bold;vertical-align:top;">session_client</td><td style="vertical-align:top;">:</td><td><div>127.0.0.1</div></td></tr><tr><td style="font-weight:bold;vertical-align:top;">session_cookie_compression_level</td><td style="vertical-align:top;">:</td><td><div>None</div></td></tr><tr><td style="font-weight:bold;vertical-align:top;">session_cookie_expires</td><td style="vertical-align:top;">:</td><td><div>None</div></td></tr><tr><td style="font-weight:bold;vertical-align:top;">session_cookie_key</td><td style="vertical-align:top;">:</td><td><div>None</div></td></tr><tr><td style="font-weight:bold;vertical-align:top;">session_data_name</td><td style="vertical-align:top;">:</td><td><div>session_data_wm</div></td></tr><tr><td style="font-weight:bold;vertical-align:top;">session_file</td><td style="vertical-align:top;">:</td><td><div>&lt;open file &#x27;/home/chad/web2py/applications/wm/sessions/127.0.0.1-ea7080ae-efbd-4189-8b33-c76b2af08d7a&#x27;, mode &#x27;rb+&#x27; at 0x7fcac874ced0&gt;</div></td></tr><tr><td style="font-weight:bold;vertical-align:top;">session_filename</td><td style="vertical-align:top;">:</td><td><div>/home/chad/web2py/applications/wm/sessions/127.0.0.1-ea7080ae-efbd-4189-8b33-c76b2af08d7a</div></td></tr><tr><td style="font-weight:bold;vertical-align:top;">session_hash</td><td style="vertical-align:top;">:</td><td><div>c126663d461813e63ff7928a920c05af</div></td></tr><tr><td style="font-weight:bold;vertical-align:top;">session_id</td><td style="vertical-align:top;">:</td><td><div>127.0.0.1-ea7080ae-efbd-4189-8b33-c76b2af08d7a</div></td></tr><tr><td style="font-weight:bold;vertical-align:top;">session_id_name</td><td style="vertical-align:top;">:</td><td><div>session_id_wm</div></td></tr><tr><td style="font-weight:bold;vertical-align:top;">session_locked</td><td style="vertical-align:top;">:</td><td><div>True</div></td></tr><tr><td style="font-weight:bold;vertical-align:top;">session_masterapp</td><td style="vertical-align:top;">:</td><td><div>wm</div></td></tr><tr><td style="font-weight:bold;vertical-align:top;">session_new</td><td style="vertical-align:top;">:</td><td><div>False</div></td></tr><tr><td style="font-weight:bold;vertical-align:top;">session_storage_type</td><td style="vertical-align:top;">:</td><td><div>file</div></td></tr><tr><td style="font-weight:bold;vertical-align:top;">status</td><td style="vertical-align:top;">:</td><td><div>200</div></td></tr><tr><td style="font-weight:bold;vertical-align:top;">subtitle</td><td style="vertical-align:top;">:</td><td><div>Really Great Apartments</div></td></tr><tr><td style="font-weight:bold;vertical-align:top;">title</td><td style="vertical-align:top;">:</td><td><div>Windsor Manor</div></td></tr><tr><td style="font-weight:bold;vertical-align:top;">view</td><td style="vertical-align:top;">:</td><td><div>default/getAvailables.html</div></td></tr></table></div>'
tRp241
sS'locals'
p242
(dp243
S's'
S"''"
p244
sS'self'
p245
S'<gluon.contrib.simplejson.decoder.JSONDecoder object>'
p246
sS'idx'
p247
S'0'
sssS'traceback'
p248
S'Traceback (most recent call last):\n  File "/home/chad/web2py/gluon/restricted.py", line 220, in restricted\n    exec ccode in environment\n  File "/home/chad/web2py/applications/wm/controllers/default.py", line 242, in <module>\n  File "/home/chad/web2py/gluon/globals.py", line 385, in <lambda>\n    self._caller = lambda f: f()\n  File "/home/chad/web2py/applications/wm/controllers/default.py", line 239, in getAvailables\n    data = gluon.contrib.simplejson.loads(request.body.read())\n  File "/home/chad/web2py/gluon/contrib/simplejson/__init__.py", line 386, in loads\n    return _default_decoder.decode(s)\n  File "/home/chad/web2py/gluon/contrib/simplejson/decoder.py", line 403, in decode\n    obj, end = self.raw_decode(s, idx=_w(s, 0).end())\n  File "/home/chad/web2py/gluon/contrib/simplejson/decoder.py", line 421, in raw_decode\n    raise JSONDecodeError("No JSON object could be decoded", s, idx)\nJSONDecodeError: No JSON object could be decoded: line 1 column 0 (char 0)\n'
p249
s.