(dp1
S'output'
p2
S"<type 'exceptions.KeyError'> 'Cannot resolve reference t_apartment in t_contract definition'"
p3
sS'layer'
p4
S'K:\\Program_Files\\web2py\\applications\\windsorManor\\models\\db_wizard.py'
p5
sS'code'
p6
S"### we prepend t_ to tablenames and f_ to fieldnames for disambiguity\n\n\n########################################\ndb.define_table('t_semester',\n    Field('f_start_date', type='date',\n          label=T('Start Date')),\n    Field('f_end_date', type='date',\n          label=T('End Date')),\n    Field('f_creation_date', type='date',\n          label=T('Creation Date')),\n    Field('f_last_updated_date', type='date',\n          label=T('Last Updated Date')),\n    auth.signature,\n    format='%(f_start_date)s',\n    migrate=settings.migrate)\n\ndb.define_table('t_semester_archive',db.t_semester,Field('current_record','reference t_semester',readable=False,writable=False))\n\n########################################\ndb.define_table('t_request_comments',\n    Field('f_comments', type='string',\n          label=T('Comments'),notnull=True),\n    Field('f_creations_date', type='date',\n          label=T('Creation Date'),notnull=True),\n    Field('f_created_by', type='references auth_user',\n          label=T('Created By'),notnull=True),\n    auth.signature,\n    format='%(f_comments)s',\n    migrate=settings.migrate)\n\ndb.define_table('t_request_comments_archive',db.t_request_comments,Field('current_record','reference t_request_comments',readable=False,writable=False))\n\n########################################\ndb.define_table('t_contract',\n    Field('f_user_id', type='references auth_user',\n          label=T('User Id'),notnull=True),\n    Field('f_apartment_id', type='references t_apartment',\n          label=T('Apartment Id'),notnull=True),\n    Field('f_semester_id', type='references t_semester',\n          label=T('Semester Id'),notnull=True),\n    Field('f_active', type='boolean',\n          label=T('Active'),notnull=True),\n    Field('f_creation_date', type='date',\n          label=T('Creation Date'),notnull=True),\n    Field('f_last_updated_date', type='date',\n          label=T('Last Updated Date'),notnull=True),\n    auth.signature,\n    format='%(f_user_id)s',\n    migrate=settings.migrate)\n\ndb.define_table('t_contract_archive',db.t_contract,Field('current_record','reference t_contract',readable=False,writable=False))\n\n########################################\ndb.define_table('t_parking',\n    Field('f_user_id', type='string',\n          label=T('User Id')),\n    Field('f_stall_number', type='string',\n          label=T('Stall Number')),\n    Field('f_car_make', type='string',\n          label=T('Car Make')),\n    Field('f_car_model', type='string',\n          label=T('Car Model')),\n    Field('f_license_plate_number', type='string',\n          label=T('License Plate Number')),\n    auth.signature,\n    format='%(f_user_id)s',\n    migrate=settings.migrate)\n\ndb.define_table('t_parking_archive',db.t_parking,Field('current_record','reference t_parking',readable=False,writable=False))\n\n########################################\ndb.define_table('t_room_type',\n    Field('f_type', type='string',\n          label=T('Type')),\n    Field('f_details', type='string',\n          label=T('Details')),\n    auth.signature,\n    format='%(f_type)s',\n    migrate=settings.migrate)\n\ndb.define_table('t_room_type_archive',db.t_room_type,Field('current_record','reference t_room_type',readable=False,writable=False))\n\n########################################\ndb.define_table('t_request_type',\n    Field('f_type', type='string',\n          label=T('Type')),\n    Field('f_details', type='string',\n          label=T('Details')),\n    auth.signature,\n    format='%(f_type)s',\n    migrate=settings.migrate)\n\ndb.define_table('t_request_type_archive',db.t_request_type,Field('current_record','reference t_request_type',readable=False,writable=False))\n\n########################################\ndb.define_table('t_apartment',\n    Field('f_floor_id', type='string',\n          label=T('Floor Id')),\n    Field('f_apartment_type_id', type='string',\n          label=T('Apartment Type Id')),\n    Field('f_apartment_number', type='string',\n          label=T('Apartment Number')),\n    auth.signature,\n    format='%(f_floor_id)s',\n    migrate=settings.migrate)\n\ndb.define_table('t_apartment_archive',db.t_apartment,Field('current_record','reference t_apartment',readable=False,writable=False))\n\n########################################\ndb.define_table('t_building',\n    Field('f_building_name', type='string',\n          label=T('Building Name')),\n    Field('f_building_number', type='string',\n          label=T('Building Number')),\n    Field('f_building_type', type='string',\n          label=T('Building Type')),\n    auth.signature,\n    format='%(f_building_name)s',\n    migrate=settings.migrate)\n\ndb.define_table('t_building_archive',db.t_building,Field('current_record','reference t_building',readable=False,writable=False))\n\n########################################\ndb.define_table('t_request',\n    Field('f_user_id', type='string',\n          label=T('User Id')),\n    Field('f_request_type_id', type='string',\n          label=T('Request Type Id')),\n    Field('f_request_comments_id', type='string',\n          label=T('Request Comments Id')),\n    Field('f_location', type='string',\n          label=T('Location')),\n    Field('f_details', type='string',\n          label=T('Details')),\n    Field('f_status', type='string',\n          label=T('Status')),\n    Field('f_creation_date', type='string',\n          label=T('Creation Date')),\n    Field('f_last_updated_date', type='string',\n          label=T('Last Updated Date')),\n    auth.signature,\n    format='%(f_user_id)s',\n    migrate=settings.migrate)\n\ndb.define_table('t_request_archive',db.t_request,Field('current_record','reference t_request',readable=False,writable=False))\n\n########################################\ndb.define_table('t_floor',\n    Field('f_building_id', type='string',\n          label=T('Building Id')),\n    Field('f_floor_number', type='string',\n          label=T('Floor Number')),\n    auth.signature,\n    format='%(f_building_id)s',\n    migrate=settings.migrate)\n\ndb.define_table('t_floor_archive',db.t_floor,Field('current_record','reference t_floor',readable=False,writable=False))\n\n########################################\ndb.define_table('t_room',\n    Field('f_room_type_id', type='string',\n          label=T('Room Type Id')),\n    Field('f_apartment_id', type='string',\n          label=T('Apartment Id')),\n    auth.signature,\n    format='%(f_room_type_id)s',\n    migrate=settings.migrate)\n\ndb.define_table('t_room_archive',db.t_room,Field('current_record','reference t_room',readable=False,writable=False))\n\n########################################\ndb.define_table('t_apartment_type',\n    Field('f_apartment_type', type='string',\n          label=T('Apartment Type')),\n    auth.signature,\n    format='%(f_apartment_type)s',\n    migrate=settings.migrate)\n\ndb.define_table('t_apartment_type_archive',db.t_apartment_type,Field('current_record','reference t_apartment_type',readable=False,writable=False))\n\n########################################\ndb.define_table('t_user_info',\n    Field('f_phone', type='string',\n          label=T('Phone')),\n    Field('f_address1', type='string',\n          label=T('Address1')),\n    Field('f_address2', type='string',\n          label=T('Address2')),\n    Field('f_city', type='string',\n          label=T('City')),\n    Field('f_state', type='string',\n          label=T('State')),\n    Field('f_zip', type='string',\n          label=T('Zip')),\n    Field('f_country', type='string',\n          label=T('Country')),\n    Field('f_gender', type='string',\n          label=T('Gender')),\n    Field('f_creation_date', type='string',\n          label=T('Creation Date')),\n    Field('f_last_updated_date', type='string',\n          label=T('Last Updated Date')),\n    auth.signature,\n    format='%(f_phone)s',\n    migrate=settings.migrate)\n\ndb.define_table('t_user_info_archive',db.t_user_info,Field('current_record','reference t_user_info',readable=False,writable=False))\n"
p7
sS'snapshot'
p8
(dp9
S'exception'
p10
(dp11
S'__hash__'
p12
S"<method-wrapper '__hash__' of exceptions.KeyError object>"
p13
sS'__setattr__'
p14
S"<method-wrapper '__setattr__' of exceptions.KeyError object>"
p15
sS'__reduce_ex__'
p16
S'<built-in method __reduce_ex__ of exceptions.KeyError object>'
p17
sS'__getslice__'
p18
S"<method-wrapper '__getslice__' of exceptions.KeyError object>"
p19
sS'__getitem__'
p20
S"<method-wrapper '__getitem__' of exceptions.KeyError object>"
p21
sS'__setstate__'
p22
S'<built-in method __setstate__ of exceptions.KeyError object>'
p23
sS'__reduce__'
p24
S'<built-in method __reduce__ of exceptions.KeyError object>'
p25
sS'__str__'
p26
S"<method-wrapper '__str__' of exceptions.KeyError object>"
p27
sS'__format__'
p28
S'<built-in method __format__ of exceptions.KeyError object>'
p29
sS'__getattribute__'
p30
S"<method-wrapper '__getattribute__' of exceptions.KeyError object>"
p31
sS'__class__'
p32
S"<type 'exceptions.KeyError'>"
p33
sS'__unicode__'
p34
S'<built-in method __unicode__ of exceptions.KeyError object>'
p35
sS'__delattr__'
p36
S"<method-wrapper '__delattr__' of exceptions.KeyError object>"
p37
sS'__subclasshook__'
p38
S'<built-in method __subclasshook__ of type object>'
p39
sS'__repr__'
p40
S"<method-wrapper '__repr__' of exceptions.KeyError object>"
p41
sS'args'
p42
S"('Cannot resolve reference t_apartment in t_contract definition',)"
p43
sS'__dict__'
p44
S'{}'
p45
sS'__sizeof__'
p46
S'<built-in method __sizeof__ of exceptions.KeyError object>'
p47
sS'__doc__'
p48
S"'Mapping key not found.'"
p49
sS'__init__'
p50
S"<method-wrapper '__init__' of exceptions.KeyError object>"
p51
sS'__new__'
p52
S'<built-in method __new__ of type object>'
p53
ssS'evalue'
p54
S"'Cannot resolve reference t_apartment in t_contract definition'"
p55
sS'request'
p56
cgluon.html
XML_unpickle
p57
(S's\xa8`\x00\x00<div><table><tr><td style="font-weight:bold;vertical-align:top;">ajax</td><td style="vertical-align:top;">:</td><td><div>False</div></td></tr><tr><td style="font-weight:bold;vertical-align:top;">application</td><td style="vertical-align:top;">:</td><td><div>windsorManor</div></td></tr><tr><td style="font-weight:bold;vertical-align:top;">args</td><td style="vertical-align:top;">:</td><td><div><table></table></div></td></tr><tr><td style="font-weight:bold;vertical-align:top;">cid</td><td style="vertical-align:top;">:</td><td><div>None</div></td></tr><tr><td style="font-weight:bold;vertical-align:top;">client</td><td style="vertical-align:top;">:</td><td><div>127.0.0.1</div></td></tr><tr><td style="font-weight:bold;vertical-align:top;">controller</td><td style="vertical-align:top;">:</td><td><div>default</div></td></tr><tr><td style="font-weight:bold;vertical-align:top;">cookies</td><td style="vertical-align:top;">:</td><td><div><table><tr><td style="font-weight:bold;vertical-align:top;">session_id_admin</td><td style="vertical-align:top;">:</td><td><div>127.0.0.1-3c866ec1-88bd-418f-bdec-c5a9825974db<table><tr><td style="font-weight:bold;vertical-align:top;">comment</td><td style="vertical-align:top;">:</td><td><div></div></td></tr><tr><td style="font-weight:bold;vertical-align:top;">domain</td><td style="vertical-align:top;">:</td><td><div></div></td></tr><tr><td style="font-weight:bold;vertical-align:top;">expires</td><td style="vertical-align:top;">:</td><td><div></div></td></tr><tr><td style="font-weight:bold;vertical-align:top;">httponly</td><td style="vertical-align:top;">:</td><td><div></div></td></tr><tr><td style="font-weight:bold;vertical-align:top;">max-age</td><td style="vertical-align:top;">:</td><td><div></div></td></tr><tr><td style="font-weight:bold;vertical-align:top;">path</td><td style="vertical-align:top;">:</td><td><div></div></td></tr><tr><td style="font-weight:bold;vertical-align:top;">secure</td><td style="vertical-align:top;">:</td><td><div></div></td></tr><tr><td style="font-weight:bold;vertical-align:top;">version</td><td style="vertical-align:top;">:</td><td><div></div></td></tr></table></div></td></tr><tr><td style="font-weight:bold;vertical-align:top;">session_id_timekeeping</td><td style="vertical-align:top;">:</td><td><div>127.0.0.1-80e584d7-7324-49c5-aeea-9d4a7c5a271f<table><tr><td style="font-weight:bold;vertical-align:top;">comment</td><td style="vertical-align:top;">:</td><td><div></div></td></tr><tr><td style="font-weight:bold;vertical-align:top;">domain</td><td style="vertical-align:top;">:</td><td><div></div></td></tr><tr><td style="font-weight:bold;vertical-align:top;">expires</td><td style="vertical-align:top;">:</td><td><div></div></td></tr><tr><td style="font-weight:bold;vertical-align:top;">httponly</td><td style="vertical-align:top;">:</td><td><div></div></td></tr><tr><td style="font-weight:bold;vertical-align:top;">max-age</td><td style="vertical-align:top;">:</td><td><div></div></td></tr><tr><td style="font-weight:bold;vertical-align:top;">path</td><td style="vertical-align:top;">:</td><td><div></div></td></tr><tr><td style="font-weight:bold;vertical-align:top;">secure</td><td style="vertical-align:top;">:</td><td><div></div></td></tr><tr><td style="font-weight:bold;vertical-align:top;">version</td><td style="vertical-align:top;">:</td><td><div></div></td></tr></table></div></td></tr><tr><td style="font-weight:bold;vertical-align:top;">session_id_welcome</td><td style="vertical-align:top;">:</td><td><div>127.0.0.1-de24883a-fa5d-4df9-a897-4af473a12d0e<table><tr><td style="font-weight:bold;vertical-align:top;">comment</td><td style="vertical-align:top;">:</td><td><div></div></td></tr><tr><td style="font-weight:bold;vertical-align:top;">domain</td><td style="vertical-align:top;">:</td><td><div></div></td></tr><tr><td style="font-weight:bold;vertical-align:top;">expires</td><td style="vertical-align:top;">:</td><td><div></div></td></tr><tr><td style="font-weight:bold;vertical-align:top;">httponly</td><td style="vertical-align:top;">:</td><td><div></div></td></tr><tr><td style="font-weight:bold;vertical-align:top;">max-age</td><td style="vertical-align:top;">:</td><td><div></div></td></tr><tr><td style="font-weight:bold;vertical-align:top;">path</td><td style="vertical-align:top;">:</td><td><div></div></td></tr><tr><td style="font-weight:bold;vertical-align:top;">secure</td><td style="vertical-align:top;">:</td><td><div></div></td></tr><tr><td style="font-weight:bold;vertical-align:top;">version</td><td style="vertical-align:top;">:</td><td><div></div></td></tr></table></div></td></tr><tr><td style="font-weight:bold;vertical-align:top;">session_id_windsormanor</td><td style="vertical-align:top;">:</td><td><div>127.0.0.1-5293df29-2d1d-45f2-b575-98c6bddd006c<table><tr><td style="font-weight:bold;vertical-align:top;">comment</td><td style="vertical-align:top;">:</td><td><div></div></td></tr><tr><td style="font-weight:bold;vertical-align:top;">domain</td><td style="vertical-align:top;">:</td><td><div></div></td></tr><tr><td style="font-weight:bold;vertical-align:top;">expires</td><td style="vertical-align:top;">:</td><td><div></div></td></tr><tr><td style="font-weight:bold;vertical-align:top;">httponly</td><td style="vertical-align:top;">:</td><td><div></div></td></tr><tr><td style="font-weight:bold;vertical-align:top;">max-age</td><td style="vertical-align:top;">:</td><td><div></div></td></tr><tr><td style="font-weight:bold;vertical-align:top;">path</td><td style="vertical-align:top;">:</td><td><div></div></td></tr><tr><td style="font-weight:bold;vertical-align:top;">secure</td><td style="vertical-align:top;">:</td><td><div></div></td></tr><tr><td style="font-weight:bold;vertical-align:top;">version</td><td style="vertical-align:top;">:</td><td><div></div></td></tr></table></div></td></tr></table></div></td></tr><tr><td style="font-weight:bold;vertical-align:top;">env</td><td style="vertical-align:top;">:</td><td><div><table><tr><td style="font-weight:bold;vertical-align:top;">HTTP_ACCEPT</td><td style="vertical-align:top;">:</td><td><div>text/html,application/xhtml+xml,application/xml;q=0.9,*/*;q=0.8</div></td></tr><tr><td style="font-weight:bold;vertical-align:top;">HTTP_ACCEPT_ENCODING</td><td style="vertical-align:top;">:</td><td><div>gzip, deflate</div></td></tr><tr><td style="font-weight:bold;vertical-align:top;">HTTP_ACCEPT_LANGUAGE</td><td style="vertical-align:top;">:</td><td><div>en-US,en;q=0.5</div></td></tr><tr><td style="font-weight:bold;vertical-align:top;">HTTP_CONNECTION</td><td style="vertical-align:top;">:</td><td><div>keep-alive</div></td></tr><tr><td style="font-weight:bold;vertical-align:top;">HTTP_COOKIE</td><td style="vertical-align:top;">:</td><td><div>session_id_welcome=127.0.0.1-de24883a-fa5d-4df9-a897-4af473a12d0e; session_id_admin=127.0.0.1-3c866ec1-88bd-418f-bdec-c5a9825974db; session_id_timekeeping=127.0.0.1-80e584d7-7324-49c5-aeea-9d4a7c5a271f; session_id_windsormanor=127.0.0.1-5293df29-2d1d-45f2-b575-98c6bddd006c</div></td></tr><tr><td style="font-weight:bold;vertical-align:top;">HTTP_HOST</td><td style="vertical-align:top;">:</td><td><div>127.0.0.1:8000</div></td></tr><tr><td style="font-weight:bold;vertical-align:top;">HTTP_REFERER</td><td style="vertical-align:top;">:</td><td><div>http://127.0.0.1:8000/admin/wizard/generated</div></td></tr><tr><td style="font-weight:bold;vertical-align:top;">HTTP_USER_AGENT</td><td style="vertical-align:top;">:</td><td><div>Mozilla/5.0 (Windows NT 6.2; WOW64; rv:30.0) Gecko/20100101 Firefox/30.0</div></td></tr><tr><td style="font-weight:bold;vertical-align:top;">PATH_INFO</td><td style="vertical-align:top;">:</td><td><div>/windsorManor/default/index</div></td></tr><tr><td style="font-weight:bold;vertical-align:top;">QUERY_STRING</td><td style="vertical-align:top;">:</td><td><div></div></td></tr><tr><td style="font-weight:bold;vertical-align:top;">REMOTE_ADDR</td><td style="vertical-align:top;">:</td><td><div>127.0.0.1</div></td></tr><tr><td style="font-weight:bold;vertical-align:top;">REMOTE_PORT</td><td style="vertical-align:top;">:</td><td><div>53079</div></td></tr><tr><td style="font-weight:bold;vertical-align:top;">REQUEST_METHOD</td><td style="vertical-align:top;">:</td><td><div>GET</div></td></tr><tr><td style="font-weight:bold;vertical-align:top;">SCRIPT_NAME</td><td style="vertical-align:top;">:</td><td><div></div></td></tr><tr><td style="font-weight:bold;vertical-align:top;">SERVER_NAME</td><td style="vertical-align:top;">:</td><td><div>gaius</div></td></tr><tr><td style="font-weight:bold;vertical-align:top;">SERVER_PORT</td><td style="vertical-align:top;">:</td><td><div>8000</div></td></tr><tr><td style="font-weight:bold;vertical-align:top;">SERVER_PROTOCOL</td><td style="vertical-align:top;">:</td><td><div>HTTP/1.1</div></td></tr><tr><td style="font-weight:bold;vertical-align:top;">SERVER_SOFTWARE</td><td style="vertical-align:top;">:</td><td><div>Rocket 1.2.6</div></td></tr><tr><td style="font-weight:bold;vertical-align:top;">app_folders</td><td style="vertical-align:top;">:</td><td><div>set([&#x27;K:\\\\Program_Files\\\\web2py\\\\applications\\\\welcome\\\\&#x27;, &#x27;K:\\\\Program_Files\\\\web2py\\\\applications\\\\admin\\\\&#x27;, &#x27;K:\\\\Program_Files\\\\web2py\\\\applications\\\\windsorManor\\\\&#x27;])</div></td></tr><tr><td style="font-weight:bold;vertical-align:top;">applications_parent</td><td style="vertical-align:top;">:</td><td><div>K:\\Program_Files\\web2py</div></td></tr><tr><td style="font-weight:bold;vertical-align:top;">cmd_args</td><td style="vertical-align:top;">:</td><td><div><table></table></div></td></tr><tr><td style="font-weight:bold;vertical-align:top;">cmd_options</td><td style="vertical-align:top;">:</td><td><div>&lt;Values at 0x20b1c60: {&#x27;verbose&#x27;: False, &#x27;ip&#x27;: &#x27;127.0.0.1&#x27;, &#x27;debuglevel&#x27;: 30, &#x27;with_scheduler&#x27;: False, &#x27;ips&#x27;: [], &#x27;shutdown_timeout&#x27;: 5, &#x27;taskbar&#x27;: False, &#x27;with_coverage&#x27;: False, &#x27;port&#x27;: 8000, &#x27;maxthreads&#x27;: None, &#x27;softcron&#x27;: False, &#x27;server_name&#x27;: &#x27;gaius&#x27;, &#x27;bpython&#x27;: False, &#x27;nogui&#x27;: False, &#x27;pid_filename&#x27;: &#x27;httpserver.pid&#x27;, &#x27;extcron&#x27;: False, &#x27;runcron&#x27;: False, &#x27;run_system_tests&#x27;: False, &#x27;test&#x27;: None, &#x27;folder&#x27;: &#x27;K:\\\\Program_Files\\\\web2py&#x27;, &#x27;config&#x27;: &#x27;&#x27;, &#x27;minthreads&#x27;: None, &#x27;shell&#x27;: None, &#x27;run&#x27;: &#x27;&#x27;, &#x27;log_filename&#x27;: &#x27;httpserver.log&#x27;, &#x27;profiler_dir&#x27;: None, &#x27;args&#x27;: [&#x27;&#x27;], &#x27;socket_timeout&#x27;: 5, &#x27;ssl_ca_certificate&#x27;: None, &#x27;scheduler&#x27;: None, &#x27;interfaces&#x27;: None, &#x27;ssl_private_key&#x27;: &#x27;&#x27;, &#x27;scheduler_groups&#x27;: None, &#x27;password&#x27;: &#x27;&lt;ask&gt;&#x27;, &#x27;request_queue_size&#x27;: 5, &#x27;ssl_certificate&#x27;: &#x27;&#x27;, &#x27;cronjob&#x27;: False, &#x27;numthreads&#x27;: None, &#x27;quiet&#x27;: False, &#x27;import_models&#x27;: False, &#x27;timeout&#x27;: 10, &#x27;plain&#x27;: False, &#x27;nobanner&#x27;: False}&gt;</div></td></tr><tr><td style="font-weight:bold;vertical-align:top;">db_sessions</td><td style="vertical-align:top;">:</td><td><div>set([])</div></td></tr><tr><td style="font-weight:bold;vertical-align:top;">debugging</td><td style="vertical-align:top;">:</td><td><div>False</div></td></tr><tr><td style="font-weight:bold;vertical-align:top;">gluon_parent</td><td style="vertical-align:top;">:</td><td><div>K:\\Program_Files\\web2py</div></td></tr><tr><td style="font-weight:bold;vertical-align:top;">http_accept</td><td style="vertical-align:top;">:</td><td><div>text/html,application/xhtml+xml,application/xml;q=0.9,*/*;q=0.8</div></td></tr><tr><td style="font-weight:bold;vertical-align:top;">http_accept_encoding</td><td style="vertical-align:top;">:</td><td><div>gzip, deflate</div></td></tr><tr><td style="font-weight:bold;vertical-align:top;">http_accept_language</td><td style="vertical-align:top;">:</td><td><div>en-US,en;q=0.5</div></td></tr><tr><td style="font-weight:bold;vertical-align:top;">http_connection</td><td style="vertical-align:top;">:</td><td><div>keep-alive</div></td></tr><tr><td style="font-weight:bold;vertical-align:top;">http_cookie</td><td style="vertical-align:top;">:</td><td><div>session_id_welcome=127.0.0.1-de24883a-fa5d-4df9-a897-4af473a12d0e; session_id_admin=127.0.0.1-3c866ec1-88bd-418f-bdec-c5a9825974db; session_id_timekeeping=127.0.0.1-80e584d7-7324-49c5-aeea-9d4a7c5a271f; session_id_windsormanor=127.0.0.1-5293df29-2d1d-45f2-b575-98c6bddd006c</div></td></tr><tr><td style="font-weight:bold;vertical-align:top;">http_host</td><td style="vertical-align:top;">:</td><td><div>127.0.0.1:8000</div></td></tr><tr><td style="font-weight:bold;vertical-align:top;">http_referer</td><td style="vertical-align:top;">:</td><td><div>http://127.0.0.1:8000/admin/wizard/generated</div></td></tr><tr><td style="font-weight:bold;vertical-align:top;">http_user_agent</td><td style="vertical-align:top;">:</td><td><div>Mozilla/5.0 (Windows NT 6.2; WOW64; rv:30.0) Gecko/20100101 Firefox/30.0</div></td></tr><tr><td style="font-weight:bold;vertical-align:top;">is_jython</td><td style="vertical-align:top;">:</td><td><div>False</div></td></tr><tr><td style="font-weight:bold;vertical-align:top;">is_pypy</td><td style="vertical-align:top;">:</td><td><div>False</div></td></tr><tr><td style="font-weight:bold;vertical-align:top;">is_source</td><td style="vertical-align:top;">:</td><td><div>False</div></td></tr><tr><td style="font-weight:bold;vertical-align:top;">local_hosts</td><td style="vertical-align:top;">:</td><td><div><table><tr><td><div>fe80::24ac:641:3f57:fe4a%18</div></td></tr><tr><td><div>gaius</div></td></tr><tr><td><div>::ffff:127.0.0.1</div></td></tr><tr><td><div>::1</div></td></tr><tr><td><div>192.168.1.181</div></td></tr><tr><td><div>gaius.router4ecca6.com</div></td></tr><tr><td><div>fe80::dc20:cc24:cbbd:bbf5%36</div></td></tr><tr><td><div>2001:0:5ef5:79fd:24ac:641:3f57:fe4a</div></td></tr><tr><td><div>127.0.0.1</div></td></tr></table></div></td></tr><tr><td style="font-weight:bold;vertical-align:top;">path_info</td><td style="vertical-align:top;">:</td><td><div>/windsorManor/default/index</div></td></tr><tr><td style="font-weight:bold;vertical-align:top;">query_string</td><td style="vertical-align:top;">:</td><td><div></div></td></tr><tr><td style="font-weight:bold;vertical-align:top;">remote_addr</td><td style="vertical-align:top;">:</td><td><div>127.0.0.1</div></td></tr><tr><td style="font-weight:bold;vertical-align:top;">remote_port</td><td style="vertical-align:top;">:</td><td><div>53079</div></td></tr><tr><td style="font-weight:bold;vertical-align:top;">request_method</td><td style="vertical-align:top;">:</td><td><div>GET</div></td></tr><tr><td style="font-weight:bold;vertical-align:top;">request_uri</td><td style="vertical-align:top;">:</td><td><div>/windsorManor/default/index</div></td></tr><tr><td style="font-weight:bold;vertical-align:top;">script_name</td><td style="vertical-align:top;">:</td><td><div></div></td></tr><tr><td style="font-weight:bold;vertical-align:top;">server_name</td><td style="vertical-align:top;">:</td><td><div>gaius</div></td></tr><tr><td style="font-weight:bold;vertical-align:top;">server_port</td><td style="vertical-align:top;">:</td><td><div>8000</div></td></tr><tr><td style="font-weight:bold;vertical-align:top;">server_protocol</td><td style="vertical-align:top;">:</td><td><div>HTTP/1.1</div></td></tr><tr><td style="font-weight:bold;vertical-align:top;">server_software</td><td style="vertical-align:top;">:</td><td><div>Rocket 1.2.6</div></td></tr><tr><td style="font-weight:bold;vertical-align:top;">web2py_path</td><td style="vertical-align:top;">:</td><td><div>K:\\Program_Files\\web2py</div></td></tr><tr><td style="font-weight:bold;vertical-align:top;">web2py_version</td><td style="vertical-align:top;">:</td><td><div>2.9.5-stable+timestamp.2014.03.20.22.57.13</div></td></tr><tr><td style="font-weight:bold;vertical-align:top;">wsgi.errors</td><td style="vertical-align:top;">:</td><td><div>&lt;open file &#x27;&lt;stderr&gt;&#x27;, mode &#x27;w&#x27; at 0x01DA60D0&gt;</div></td></tr><tr><td style="font-weight:bold;vertical-align:top;">wsgi.file_wrapper</td><td style="vertical-align:top;">:</td><td><div>&lt;class wsgiref.util.FileWrapper at 0x02F6EC38&gt;</div></td></tr><tr><td style="font-weight:bold;vertical-align:top;">wsgi.input</td><td style="vertical-align:top;">:</td><td><div>&lt;socket._fileobject object at 0x083FBEF0&gt;</div></td></tr><tr><td style="font-weight:bold;vertical-align:top;">wsgi.multiprocess</td><td style="vertical-align:top;">:</td><td><div>False</div></td></tr><tr><td style="font-weight:bold;vertical-align:top;">wsgi.multithread</td><td style="vertical-align:top;">:</td><td><div>True</div></td></tr><tr><td style="font-weight:bold;vertical-align:top;">wsgi.run_once</td><td style="vertical-align:top;">:</td><td><div>False</div></td></tr><tr><td style="font-weight:bold;vertical-align:top;">wsgi.url_scheme</td><td style="vertical-align:top;">:</td><td><div>http</div></td></tr><tr><td style="font-weight:bold;vertical-align:top;">wsgi.version</td><td style="vertical-align:top;">:</td><td><div><table><tr><td><div>1</div></td></tr><tr><td><div>0</div></td></tr></table></div></td></tr><tr><td style="font-weight:bold;vertical-align:top;">wsgi_errors</td><td style="vertical-align:top;">:</td><td><div>&lt;open file &#x27;&lt;stderr&gt;&#x27;, mode &#x27;w&#x27; at 0x01DA60D0&gt;</div></td></tr><tr><td style="font-weight:bold;vertical-align:top;">wsgi_file_wrapper</td><td style="vertical-align:top;">:</td><td><div>&lt;class wsgiref.util.FileWrapper at 0x02F6EC38&gt;</div></td></tr><tr><td style="font-weight:bold;vertical-align:top;">wsgi_input</td><td style="vertical-align:top;">:</td><td><div>&lt;socket._fileobject object at 0x083FBEF0&gt;</div></td></tr><tr><td style="font-weight:bold;vertical-align:top;">wsgi_multiprocess</td><td style="vertical-align:top;">:</td><td><div>False</div></td></tr><tr><td style="font-weight:bold;vertical-align:top;">wsgi_multithread</td><td style="vertical-align:top;">:</td><td><div>True</div></td></tr><tr><td style="font-weight:bold;vertical-align:top;">wsgi_run_once</td><td style="vertical-align:top;">:</td><td><div>False</div></td></tr><tr><td style="font-weight:bold;vertical-align:top;">wsgi_url_scheme</td><td style="vertical-align:top;">:</td><td><div>http</div></td></tr><tr><td style="font-weight:bold;vertical-align:top;">wsgi_version</td><td style="vertical-align:top;">:</td><td><div><table><tr><td><div>1</div></td></tr><tr><td><div>0</div></td></tr></table></div></td></tr></table></div></td></tr><tr><td style="font-weight:bold;vertical-align:top;">extension</td><td style="vertical-align:top;">:</td><td><div>html</div></td></tr><tr><td style="font-weight:bold;vertical-align:top;">folder</td><td style="vertical-align:top;">:</td><td><div>K:\\Program_Files\\web2py\\applications\\windsorManor\\</div></td></tr><tr><td style="font-weight:bold;vertical-align:top;">function</td><td style="vertical-align:top;">:</td><td><div>index</div></td></tr><tr><td style="font-weight:bold;vertical-align:top;">global_settings</td><td style="vertical-align:top;">:</td><td><div><table><tr><td style="font-weight:bold;vertical-align:top;">app_folders</td><td style="vertical-align:top;">:</td><td><div>set([&#x27;K:\\\\Program_Files\\\\web2py\\\\applications\\\\welcome\\\\&#x27;, &#x27;K:\\\\Program_Files\\\\web2py\\\\applications\\\\admin\\\\&#x27;, &#x27;K:\\\\Program_Files\\\\web2py\\\\applications\\\\windsorManor\\\\&#x27;])</div></td></tr><tr><td style="font-weight:bold;vertical-align:top;">applications_parent</td><td style="vertical-align:top;">:</td><td><div>K:\\Program_Files\\web2py</div></td></tr><tr><td style="font-weight:bold;vertical-align:top;">cmd_args</td><td style="vertical-align:top;">:</td><td><div><table></table></div></td></tr><tr><td style="font-weight:bold;vertical-align:top;">cmd_options</td><td style="vertical-align:top;">:</td><td><div>&lt;Values at 0x20b1c60: {&#x27;verbose&#x27;: False, &#x27;ip&#x27;: &#x27;127.0.0.1&#x27;, &#x27;debuglevel&#x27;: 30, &#x27;with_scheduler&#x27;: False, &#x27;ips&#x27;: [], &#x27;shutdown_timeout&#x27;: 5, &#x27;taskbar&#x27;: False, &#x27;with_coverage&#x27;: False, &#x27;port&#x27;: 8000, &#x27;maxthreads&#x27;: None, &#x27;softcron&#x27;: False, &#x27;server_name&#x27;: &#x27;gaius&#x27;, &#x27;bpython&#x27;: False, &#x27;nogui&#x27;: False, &#x27;pid_filename&#x27;: &#x27;httpserver.pid&#x27;, &#x27;extcron&#x27;: False, &#x27;runcron&#x27;: False, &#x27;run_system_tests&#x27;: False, &#x27;test&#x27;: None, &#x27;folder&#x27;: &#x27;K:\\\\Program_Files\\\\web2py&#x27;, &#x27;config&#x27;: &#x27;&#x27;, &#x27;minthreads&#x27;: None, &#x27;shell&#x27;: None, &#x27;run&#x27;: &#x27;&#x27;, &#x27;log_filename&#x27;: &#x27;httpserver.log&#x27;, &#x27;profiler_dir&#x27;: None, &#x27;args&#x27;: [&#x27;&#x27;], &#x27;socket_timeout&#x27;: 5, &#x27;ssl_ca_certificate&#x27;: None, &#x27;scheduler&#x27;: None, &#x27;interfaces&#x27;: None, &#x27;ssl_private_key&#x27;: &#x27;&#x27;, &#x27;scheduler_groups&#x27;: None, &#x27;password&#x27;: &#x27;&lt;ask&gt;&#x27;, &#x27;request_queue_size&#x27;: 5, &#x27;ssl_certificate&#x27;: &#x27;&#x27;, &#x27;cronjob&#x27;: False, &#x27;numthreads&#x27;: None, &#x27;quiet&#x27;: False, &#x27;import_models&#x27;: False, &#x27;timeout&#x27;: 10, &#x27;plain&#x27;: False, &#x27;nobanner&#x27;: False}&gt;</div></td></tr><tr><td style="font-weight:bold;vertical-align:top;">db_sessions</td><td style="vertical-align:top;">:</td><td><div>set([])</div></td></tr><tr><td style="font-weight:bold;vertical-align:top;">debugging</td><td style="vertical-align:top;">:</td><td><div>False</div></td></tr><tr><td style="font-weight:bold;vertical-align:top;">gluon_parent</td><td style="vertical-align:top;">:</td><td><div>K:\\Program_Files\\web2py</div></td></tr><tr><td style="font-weight:bold;vertical-align:top;">is_jython</td><td style="vertical-align:top;">:</td><td><div>False</div></td></tr><tr><td style="font-weight:bold;vertical-align:top;">is_pypy</td><td style="vertical-align:top;">:</td><td><div>False</div></td></tr><tr><td style="font-weight:bold;vertical-align:top;">is_source</td><td style="vertical-align:top;">:</td><td><div>False</div></td></tr><tr><td style="font-weight:bold;vertical-align:top;">local_hosts</td><td style="vertical-align:top;">:</td><td><div><table><tr><td><div>fe80::24ac:641:3f57:fe4a%18</div></td></tr><tr><td><div>gaius</div></td></tr><tr><td><div>::ffff:127.0.0.1</div></td></tr><tr><td><div>::1</div></td></tr><tr><td><div>192.168.1.181</div></td></tr><tr><td><div>gaius.router4ecca6.com</div></td></tr><tr><td><div>fe80::dc20:cc24:cbbd:bbf5%36</div></td></tr><tr><td><div>2001:0:5ef5:79fd:24ac:641:3f57:fe4a</div></td></tr><tr><td><div>127.0.0.1</div></td></tr></table></div></td></tr><tr><td style="font-weight:bold;vertical-align:top;">web2py_version</td><td style="vertical-align:top;">:</td><td><div>2.9.5-stable+timestamp.2014.03.20.22.57.13</div></td></tr></table></div></td></tr><tr><td style="font-weight:bold;vertical-align:top;">is_https</td><td style="vertical-align:top;">:</td><td><div>False</div></td></tr><tr><td style="font-weight:bold;vertical-align:top;">is_local</td><td style="vertical-align:top;">:</td><td><div>True</div></td></tr><tr><td style="font-weight:bold;vertical-align:top;">is_restful</td><td style="vertical-align:top;">:</td><td><div>False</div></td></tr><tr><td style="font-weight:bold;vertical-align:top;">now</td><td style="vertical-align:top;">:</td><td><div>datetime.datetime(2014, 6, 19, 10, 42, 7, 95000)</div></td></tr><tr><td style="font-weight:bold;vertical-align:top;">raw_args</td><td style="vertical-align:top;">:</td><td><div></div></td></tr><tr><td style="font-weight:bold;vertical-align:top;">raw_extension</td><td style="vertical-align:top;">:</td><td><div>None</div></td></tr><tr><td style="font-weight:bold;vertical-align:top;">url</td><td style="vertical-align:top;">:</td><td><div>/windsorManor/default/index</div></td></tr><tr><td style="font-weight:bold;vertical-align:top;">utcnow</td><td style="vertical-align:top;">:</td><td><div>datetime.datetime(2014, 6, 19, 16, 42, 7, 95000)</div></td></tr><tr><td style="font-weight:bold;vertical-align:top;">uuid</td><td style="vertical-align:top;">:</td><td><div>windsorManor/127.0.0.1.2014-06-19.10-42-07.cd710b27-c5bd-4a8e-b36a-5a038bc1c887</div></td></tr><tr><td style="font-weight:bold;vertical-align:top;">wsgi</td><td style="vertical-align:top;">:</td><td><div>&lt;gluon.main.LazyWSGI object at 0x07852390&gt;</div></td></tr></table></div>'
tRp58
sS'frames'
p59
(lp60
(dp61
S'file'
p62
S'K:\\home\\mdipierro\\make_web2py\\web2py\\gluon\\restricted.py'
p63
sS'dump'
p64
(dp65
sS'lnum'
p66
I220
sS'lines'
p67
(dp68
sS'call'
p69
S'(code="### we prepend t_ to tablenames and f_ to fieldn...nce t_user_info\',readable=False,writable=False))\\n", environment={\'A\': <class \'gluon.html.A\'>, \'ANY_OF\': <class \'gluon.validators.ANY_OF\'>, \'Auth\': <class \'gluon.tools.Auth\'>, \'B\': <class \'gluon.html.B\'>, \'BEAUTIFY\': <class \'gluon.html.BEAUTIFY\'>, \'BODY\': <class \'gluon.html.BODY\'>, \'BR\': <class \'gluon.html.BR\'>, \'BUTTON\': <class \'gluon.html.BUTTON\'>, \'CAT\': <class \'gluon.html.CAT\'>, \'CENTER\': <class \'gluon.html.CENTER\'>, ...}, layer=r\'K:\\Program_Files\\web2py\\applications\\windsorManor\\models\\db_wizard.py\')'
p70
sS'func'
p71
S'restricted'
p72
sa(dp73
g62
S'K:\\Program_Files\\web2py\\applications\\windsorManor\\models\\db_wizard.py'
p74
sg64
(dp75
S'migrate'
p76
S'undefined'
p77
sS'settings.migrate'
p78
S'True'
p79
sS'settings'
p80
S"<Storage {'layout_theme': 'Default', 'subtitle':...l_server': 'localhost', 'login_method': 'local'}>"
p81
ssg66
I50
sg67
(dp82
I45
S"          label=T('Creation Date'),notnull=True),"
p83
sI46
S"    Field('f_last_updated_date', type='date',"
p84
sI47
S"          label=T('Last Updated Date'),notnull=True),"
p85
sI48
S'    auth.signature,'
p86
sI49
S"    format='%(f_user_id)s',"
p87
sI50
S'    migrate=settings.migrate)'
p88
sI51
S''
sI52
S"db.define_table('t_contract_archive',db.t_contract,Field('current_record','reference t_contract',readable=False,writable=False))"
p89
sI53
S''
sI54
S'########################################'
p90
ssg69
S'()'
p91
sg71
S'<module>'
p92
sa(dp93
g62
S'K:\\home\\mdipierro\\make_web2py\\web2py\\gluon\\dal.py'
p94
sg64
(dp95
sg66
I8223
sg67
(dp96
sg69
S'(self=<DAL uri="sqlite://storage.sqlite">, tablename=\'t_contract\', *fields=(<gluon.dal.Field object>, <gluon.dal.Field object>, <gluon.dal.Field object>, <gluon.dal.Field object>, <gluon.dal.Field object>, <gluon.dal.Field object>, <Table auth_signature (id,is_active,created_on,created_by,modified_on,modified_by)>), **args={\'format\': \'%(f_user_id)s\', \'migrate\': True})'
p97
sg71
S'define_table'
p98
sa(dp99
g62
S'K:\\home\\mdipierro\\make_web2py\\web2py\\gluon\\dal.py'
p100
sg64
(dp101
sg66
I8260
sg67
(dp102
sg69
S'(self=<DAL uri="sqlite://storage.sqlite">, tablename=\'t_contract\', *fields=(<gluon.dal.Field object>, <gluon.dal.Field object>, <gluon.dal.Field object>, <gluon.dal.Field object>, <gluon.dal.Field object>, <gluon.dal.Field object>, <Table auth_signature (id,is_active,created_on,created_by,modified_on,modified_by)>), **args={\'format\': \'%(f_user_id)s\', \'migrate\': True})'
p103
sg71
S'lazy_define_table'
p104
sa(dp105
g62
S'K:\\home\\mdipierro\\make_web2py\\web2py\\gluon\\dal.py'
p106
sg64
(dp107
sg66
I925
sg67
(dp108
sg69
S'(self=<gluon.dal.SQLiteAdapter object>, table=<Table t_contract (id,f_user_id,f_apartment_id,f...e,created_on,created_by,modified_on,modified_by)>, migrate=True, fake_migrate=False, polymodel=None)'
p109
sg71
S'create_table'
p110
sasS'pyver'
p111
S'Python 2.7.6: K:\\Program_Files\\web2py\\web2py.exe (prefix: )'
p112
sS'session'
p113
g57
(S's\x1a\x00\x00\x00<div><table></table></div>'
tRp114
sS'etype'
p115
S"<type 'exceptions.KeyError'>"
p116
sS'date'
p117
S'Thu Jun 19 10:42:07 2014'
p118
sS'response'
p119
g57
(S's\xef\x16\x00\x00<div><table><tr><td style="font-weight:bold;vertical-align:top;">body</td><td style="vertical-align:top;">:</td><td><div>&lt;cStringIO.StringO object at 0x0783ECE0&gt;</div></td></tr><tr><td style="font-weight:bold;vertical-align:top;">cookies</td><td style="vertical-align:top;">:</td><td><div><table><tr><td style="font-weight:bold;vertical-align:top;">session_id_windsormanor</td><td style="vertical-align:top;">:</td><td><div>127.0.0.1-5293df29-2d1d-45f2-b575-98c6bddd006c<table><tr><td style="font-weight:bold;vertical-align:top;">comment</td><td style="vertical-align:top;">:</td><td><div></div></td></tr><tr><td style="font-weight:bold;vertical-align:top;">domain</td><td style="vertical-align:top;">:</td><td><div></div></td></tr><tr><td style="font-weight:bold;vertical-align:top;">expires</td><td style="vertical-align:top;">:</td><td><div></div></td></tr><tr><td style="font-weight:bold;vertical-align:top;">httponly</td><td style="vertical-align:top;">:</td><td><div></div></td></tr><tr><td style="font-weight:bold;vertical-align:top;">max-age</td><td style="vertical-align:top;">:</td><td><div></div></td></tr><tr><td style="font-weight:bold;vertical-align:top;">path</td><td style="vertical-align:top;">:</td><td><div>/</div></td></tr><tr><td style="font-weight:bold;vertical-align:top;">secure</td><td style="vertical-align:top;">:</td><td><div></div></td></tr><tr><td style="font-weight:bold;vertical-align:top;">version</td><td style="vertical-align:top;">:</td><td><div></div></td></tr></table></div></td></tr></table></div></td></tr><tr><td style="font-weight:bold;vertical-align:top;">delimiters</td><td style="vertical-align:top;">:</td><td><div><table><tr><td><div>{{</div></td></tr><tr><td><div>}}</div></td></tr></table></div></td></tr><tr><td style="font-weight:bold;vertical-align:top;">files</td><td style="vertical-align:top;">:</td><td><div><table></table></div></td></tr><tr><td style="font-weight:bold;vertical-align:top;">flash</td><td style="vertical-align:top;">:</td><td><div></div></td></tr><tr><td style="font-weight:bold;vertical-align:top;">generic_patterns</td><td style="vertical-align:top;">:</td><td><div><table><tr><td><div>*</div></td></tr></table></div></td></tr><tr><td style="font-weight:bold;vertical-align:top;">headers</td><td style="vertical-align:top;">:</td><td><div><table><tr><td style="font-weight:bold;vertical-align:top;">X-Powered-By</td><td style="vertical-align:top;">:</td><td><div>web2py</div></td></tr></table></div></td></tr><tr><td style="font-weight:bold;vertical-align:top;">menu</td><td style="vertical-align:top;">:</td><td><div><table></table></div></td></tr><tr><td style="font-weight:bold;vertical-align:top;">meta</td><td style="vertical-align:top;">:</td><td><div><table></table></div></td></tr><tr><td style="font-weight:bold;vertical-align:top;">models_to_run</td><td style="vertical-align:top;">:</td><td><div><table><tr><td><div>^\\w+\\.py$</div></td></tr><tr><td><div>^default/\\w+\\.py$</div></td></tr><tr><td><div>^default/index/\\w+\\.py$</div></td></tr></table></div></td></tr><tr><td style="font-weight:bold;vertical-align:top;">postprocessing</td><td style="vertical-align:top;">:</td><td><div><table></table></div></td></tr><tr><td style="font-weight:bold;vertical-align:top;">session_client</td><td style="vertical-align:top;">:</td><td><div>127.0.0.1</div></td></tr><tr><td style="font-weight:bold;vertical-align:top;">session_cookie_compression_level</td><td style="vertical-align:top;">:</td><td><div>None</div></td></tr><tr><td style="font-weight:bold;vertical-align:top;">session_cookie_expires</td><td style="vertical-align:top;">:</td><td><div>None</div></td></tr><tr><td style="font-weight:bold;vertical-align:top;">session_cookie_key</td><td style="vertical-align:top;">:</td><td><div>None</div></td></tr><tr><td style="font-weight:bold;vertical-align:top;">session_data_name</td><td style="vertical-align:top;">:</td><td><div>session_data_windsormanor</div></td></tr><tr><td style="font-weight:bold;vertical-align:top;">session_file</td><td style="vertical-align:top;">:</td><td><div>&lt;open file &#x27;K:\\\\Program_Files\\\\web2py\\\\applications\\\\windsorManor\\\\sessions\\\\127.0.0.1-5293df29-2d1d-45f2-b575-98c6bddd006c&#x27;, mode &#x27;rb+&#x27; at 0x0823DE90&gt;</div></td></tr><tr><td style="font-weight:bold;vertical-align:top;">session_filename</td><td style="vertical-align:top;">:</td><td><div>K:\\Program_Files\\web2py\\applications\\windsorManor\\sessions\\127.0.0.1-5293df29-2d1d-45f2-b575-98c6bddd006c</div></td></tr><tr><td style="font-weight:bold;vertical-align:top;">session_hash</td><td style="vertical-align:top;">:</td><td><div>3b4683efd03996ac8727fbf204f81976</div></td></tr><tr><td style="font-weight:bold;vertical-align:top;">session_id</td><td style="vertical-align:top;">:</td><td><div>127.0.0.1-5293df29-2d1d-45f2-b575-98c6bddd006c</div></td></tr><tr><td style="font-weight:bold;vertical-align:top;">session_id_name</td><td style="vertical-align:top;">:</td><td><div>session_id_windsormanor</div></td></tr><tr><td style="font-weight:bold;vertical-align:top;">session_locked</td><td style="vertical-align:top;">:</td><td><div>True</div></td></tr><tr><td style="font-weight:bold;vertical-align:top;">session_masterapp</td><td style="vertical-align:top;">:</td><td><div>windsorManor</div></td></tr><tr><td style="font-weight:bold;vertical-align:top;">session_new</td><td style="vertical-align:top;">:</td><td><div>False</div></td></tr><tr><td style="font-weight:bold;vertical-align:top;">session_storage_type</td><td style="vertical-align:top;">:</td><td><div>file</div></td></tr><tr><td style="font-weight:bold;vertical-align:top;">status</td><td style="vertical-align:top;">:</td><td><div>200</div></td></tr><tr><td style="font-weight:bold;vertical-align:top;">view</td><td style="vertical-align:top;">:</td><td><div>default/index.html</div></td></tr></table></div>'
tRp120
sS'locals'
p121
(dp122
S'rtablename'
p123
S"'auth_user'"
p124
sS'referenced'
p125
S"'t_apartment'"
p126
sS'migrate'
p127
g79
sS'constraint_name'
p128
S"'t_contract_f_apartment_id__constraint'"
p129
sS'table'
p130
S'<Table t_contract (id,f_user_id,f_apartment_id,f...e,created_on,created_by,modified_on,modified_by)>'
p131
sS'real_referenced'
p132
S"'auth_user'"
p133
sS'postcreation_fields'
p134
S'[]'
p135
sS'field_type'
p136
S"'references t_apartment'"
p137
sS'self'
p138
S'<gluon.dal.SQLiteAdapter object>'
p139
sS'tablename'
p140
S"'t_contract'"
p141
sS'field'
p142
S'<gluon.dal.Field object>'
p143
sS'ftype'
p144
S"'INTEGER REFERENCES auth_user (id) ON DELETE CASCADE'"
p145
sS'rtable'
p146
S'<Table auth_user (id,first_name,last_name,email,...stration_key,reset_password_key,registration_id)>'
p147
sS'id_fieldname'
p148
S"'id'"
p149
sS'polymodel'
p150
S'None'
p151
sS'rfieldname'
p152
S"'id'"
p153
sS'db'
p154
S'<DAL uri="sqlite://storage.sqlite">'
p155
sS'fake_migrate'
p156
S'False'
p157
sS'e'
S"ValueError('need more than 1 value to unpack',)"
p158
sS'sql_fields'
p159
S"{'f_user_id': {'length': 512, 'notnull': True, 'sortable': 2, 'sql': 'INTEGER REFERENCES auth_user (id) ON DELETE CASCADE', 'type': 'references auth_user', 'unique': False}, 'id': {'length': 512, 'notnull': False, 'sortable': 1, 'sql': 'INTEGER PRIMARY KEY AUTOINCREMENT', 'type': 'id', 'unique': False}}"
p160
sS'field_name'
p161
S"'f_apartment_id'"
p162
sS'types'
p163
S"{'big-id': 'BIGINT PRIMARY KEY AUTOINCREMENT', 'big-reference': 'BIGINT REFERENCES %(foreign_key)s ON DELETE %(on_delete_action)s', 'bigint': 'INTEGER', 'blob': 'BLOB', 'boolean': 'CHAR(1)', 'date': 'DATE', 'datetime': 'TIMESTAMP', 'decimal': 'DOUBLE', 'double': 'DOUBLE', 'float': 'DOUBLE', ...}"
p164
sS'sortable'
p165
S'3'
sS'sql_fields_aux'
p166
S"{'f_user_id': {'sql': 'INTEGER REFERENCES auth_user (id) ON DELETE CASCADE'}, 'id': {'sql': 'INTEGER PRIMARY KEY AUTOINCREMENT'}}"
p167
sS'TFK'
p168
g45
sS'fields'
p169
S"['id INTEGER PRIMARY KEY AUTOINCREMENT', 'f_user_id INTEGER REFERENCES auth_user (id) ON DELETE CASCADE']"
p170
sS'rfield'
p171
S'<gluon.dal.Field object>'
p172
sssS'traceback'
p173
S'Traceback (most recent call last):\n  File "/home/mdipierro/make_web2py/web2py/gluon/restricted.py", line 220, in restricted\n  File "K:\\Program_Files\\web2py\\applications\\windsorManor\\models\\db_wizard.py", line 50, in <module>\n    migrate=settings.migrate)\n  File "/home/mdipierro/make_web2py/web2py/gluon/dal.py", line 8223, in define_table\n  File "/home/mdipierro/make_web2py/web2py/gluon/dal.py", line 8260, in lazy_define_table\n  File "/home/mdipierro/make_web2py/web2py/gluon/dal.py", line 925, in create_table\nKeyError: \'Cannot resolve reference t_apartment in t_contract definition\'\n'
p174
s.