(dp1
S'output'
p2
S"<type 'exceptions.SyntaxError'> define_table argument is not a Field or Table: reference auth_user"
p3
sS'layer'
p4
S'K:\\Program_Files\\web2py\\applications\\windsorManor\\models\\db_wizard.py'
p5
sS'code'
p6
S"### we prepend t_ to tablenames and f_ to fieldnames for disambiguity\n\n\n########################################\ndb.define_table('t_semester',\n    Field('f_start_date', type='string',\n          label=T('Start Date')),\n    Field('f_end_date', type='string',\n          label=T('End Date')),\n    Field('f_creation_date', type='string',\n          label=T('Creation Date')),\n    Field('f_last_updated_date', type='string',\n          label=T('Last Updated Date')),\n    auth.signature,\n    format='%(f_start_date)s',\n    migrate=settings.migrate)\n\ndb.define_table('t_semester_archive',db.t_semester,Field('current_record','reference t_semester',readable=False,writable=False))\n\n########################################\ndb.define_table('t_request_comments',\n    Field('f_comments', type='string',\n          label=T('Comments')),\n    Field('f_creations_date', type='string',\n          label=T('Creation Date')),\n    Field('f_created_by', type='string',\n          label=T('Created By')),\n    'reference auth_user',\n    format='%(f_comments)s',\n    migrate=settings.migrate)\n\ndb.define_table('t_request_comments_archive',db.t_request_comments,Field('current_record','reference t_request_comments',readable=False,writable=False))\n\n########################################\ndb.define_table('t_contract',\n    Field('f_user_id', type='string',\n          label=T('User Id')),\n    Field('f_apartment_id', type='string',\n          label=T('Apartment Id')),\n    Field('f_semester_id', type='string',\n          label=T('Semester Id')),\n    Field('f_active', type='string',\n          label=T('Active')),\n    Field('f_creation_date', type='string',\n          label=T('Creation Date')),\n    Field('f_last_updated_date', type='string',\n          label=T('Last Updated Date')),\n    auth.signature,\n    format='%(f_user_id)s',\n    migrate=settings.migrate)\n\ndb.define_table('t_contract_archive',db.t_contract,Field('current_record','reference t_contract',readable=False,writable=False))\n\n########################################\ndb.define_table('t_parking',\n    Field('f_user_id', type='string',\n          label=T('User Id')),\n    Field('f_stall_number', type='string',\n          label=T('Stall Number')),\n    Field('f_car_make', type='string',\n          label=T('Car Make')),\n    Field('f_car_model', type='string',\n          label=T('Car Model')),\n    Field('f_license_plate_number', type='string',\n          label=T('License Plate Number')),\n    auth.signature,\n    format='%(f_user_id)s',\n    migrate=settings.migrate)\n\ndb.define_table('t_parking_archive',db.t_parking,Field('current_record','reference t_parking',readable=False,writable=False))\n\n########################################\ndb.define_table('t_room_type',\n    Field('f_type', type='string',\n          label=T('Type')),\n    Field('f_details', type='string',\n          label=T('Details')),\n    auth.signature,\n    format='%(f_type)s',\n    migrate=settings.migrate)\n\ndb.define_table('t_room_type_archive',db.t_room_type,Field('current_record','reference t_room_type',readable=False,writable=False))\n\n########################################\ndb.define_table('t_request_type',\n    Field('f_type', type='string',\n          label=T('Type')),\n    Field('f_details', type='string',\n          label=T('Details')),\n    auth.signature,\n    format='%(f_type)s',\n    migrate=settings.migrate)\n\ndb.define_table('t_request_type_archive',db.t_request_type,Field('current_record','reference t_request_type',readable=False,writable=False))\n\n########################################\ndb.define_table('t_apartment',\n    Field('f_floor_id', type='string',\n          label=T('Floor Id')),\n    Field('f_apartment_type_id', type='string',\n          label=T('Apartment Type Id')),\n    Field('f_apartment_number', type='string',\n          label=T('Apartment Number')),\n    auth.signature,\n    format='%(f_floor_id)s',\n    migrate=settings.migrate)\n\ndb.define_table('t_apartment_archive',db.t_apartment,Field('current_record','reference t_apartment',readable=False,writable=False))\n\n########################################\ndb.define_table('t_building',\n    Field('f_building_name', type='string',\n          label=T('Building Name')),\n    Field('f_building_number', type='string',\n          label=T('Building Number')),\n    Field('f_building_type', type='string',\n          label=T('Building Type')),\n    auth.signature,\n    format='%(f_building_name)s',\n    migrate=settings.migrate)\n\ndb.define_table('t_building_archive',db.t_building,Field('current_record','reference t_building',readable=False,writable=False))\n\n########################################\ndb.define_table('t_request',\n    Field('f_user_id', type='string',\n          label=T('User Id')),\n    Field('f_request_type_id', type='string',\n          label=T('Request Type Id')),\n    Field('f_request_comments_id', type='string',\n          label=T('Request Comments Id')),\n    Field('f_location', type='string',\n          label=T('Location')),\n    Field('f_details', type='string',\n          label=T('Details')),\n    Field('f_status', type='string',\n          label=T('Status')),\n    Field('f_creation_date', type='string',\n          label=T('Creation Date')),\n    Field('f_last_updated_date', type='string',\n          label=T('Last Updated Date')),\n    auth.signature,\n    format='%(f_user_id)s',\n    migrate=settings.migrate)\n\ndb.define_table('t_request_archive',db.t_request,Field('current_record','reference t_request',readable=False,writable=False))\n\n########################################\ndb.define_table('t_floor',\n    Field('f_building_id', type='string',\n          label=T('Building Id')),\n    Field('f_floor_number', type='string',\n          label=T('Floor Number')),\n    auth.signature,\n    format='%(f_building_id)s',\n    migrate=settings.migrate)\n\ndb.define_table('t_floor_archive',db.t_floor,Field('current_record','reference t_floor',readable=False,writable=False))\n\n########################################\ndb.define_table('t_room',\n    Field('f_room_type_id', type='string',\n          label=T('Room Type Id')),\n    Field('f_apartment_id', type='string',\n          label=T('Apartment Id')),\n    auth.signature,\n    format='%(f_room_type_id)s',\n    migrate=settings.migrate)\n\ndb.define_table('t_room_archive',db.t_room,Field('current_record','reference t_room',readable=False,writable=False))\n\n########################################\ndb.define_table('t_apartment_type',\n    Field('f_apartment_type', type='string',\n          label=T('Apartment Type')),\n    auth.signature,\n    format='%(f_apartment_type)s',\n    migrate=settings.migrate)\n\ndb.define_table('t_apartment_type_archive',db.t_apartment_type,Field('current_record','reference t_apartment_type',readable=False,writable=False))\n\n########################################\ndb.define_table('t_user_info',\n    Field('f_phone', type='string',\n          label=T('Phone')),\n    Field('f_address1', type='string',\n          label=T('Address1')),\n    Field('f_address2', type='string',\n          label=T('Address2')),\n    Field('f_city', type='string',\n          label=T('City')),\n    Field('f_state', type='string',\n          label=T('State')),\n    Field('f_zip', type='string',\n          label=T('Zip')),\n    Field('f_country', type='string',\n          label=T('Country')),\n    Field('f_gender', type='string',\n          label=T('Gender')),\n    Field('f_creation_date', type='string',\n          label=T('Creation Date')),\n    Field('f_last_updated_date', type='string',\n          label=T('Last Updated Date')),\n    auth.signature,\n    format='%(f_phone)s',\n    migrate=settings.migrate)\n\ndb.define_table('t_user_info_archive',db.t_user_info,Field('current_record','reference t_user_info',readable=False,writable=False))\n"
p7
sS'snapshot'
p8
(dp9
sS'traceback'
p10
S'Traceback (most recent call last):\n  File "/home/mdipierro/make_web2py/web2py/gluon/restricted.py", line 220, in restricted\n  File "K:\\Program_Files\\web2py\\applications\\windsorManor\\models\\db_wizard.py", line 30, in <module>\n    migrate=settings.migrate)\n  File "/home/mdipierro/make_web2py/web2py/gluon/dal.py", line 8223, in define_table\n  File "/home/mdipierro/make_web2py/web2py/gluon/dal.py", line 8240, in lazy_define_table\n  File "/home/mdipierro/make_web2py/web2py/gluon/dal.py", line 8725, in __init__\nSyntaxError: define_table argument is not a Field or Table: reference auth_user\n'
p11
s.