(dp1
S'output'
p2
S"<type 'exceptions.SyntaxError'> Set: no tables selected"
p3
sS'layer'
p4
S'/home/chad/web2py/applications/wm/controllers/default.py'
p5
sS'code'
p6
S"# -*- coding: utf-8 -*-\n### required - do no delete\nfrom datetime import date\n\ndef user(): return dict(form=auth())\ndef download(): return response.download(request,db)\ndef call(): return service()\n### end requires\ndef index():\n\treturn dict()\n\ndef error():\n    return dict()\n\n@auth.requires_login()\ndef building_manage():\n    return dict()\n\n@auth.requires_login()\ndef floor_manage():\n    return dict()\n\n@auth.requires_login()\ndef apartment_manage():\n    return dict()\n\n@auth.requires_login()\ndef apartment_type_manage():\n    return dict()\n\n@auth.requires_login()\ndef user_info_manage():\n    return dict()\n\n@auth.requires_login()\ndef contract_manage():\n    return dict()\n\n@auth.requires_login()\ndef semester_manage():\n    return dict()\n\n@auth.requires_login()\ndef parking_manage():\n    return dict()\n\n@auth.requires_login()\ndef request_manage():\n    return dict()\n\n@auth.requires_login()\ndef request_comments_manage():\n    return dict()\n\n@auth.requires_login()\ndef request_type_manage():\n    return dict()\n\n@auth.requires_login()\ndef room_manage():\n    return dict()\n\n@auth.requires_login()\ndef room_type_manage():\n    return dict()\n\ndef contract():\n    #form = SQLFORM.factory(db.t_user_info)\n    #form += SQLFORM.factory(db.t_apartment)\n    #form += SQLFORM.factory(db.t_building)\n    return dict(year=(date.today().year))\n\n#  NOT FINISHED\n# this function is to display a contract in a printable format\ndef display_full_contract(id):\n    return\n\n# About us page\ndef about():\n\treturn dict()\n\n# Contact page\ndef contact():\n\treturn dict()\n\n@auth.requires_login()\ndef t_building_manage():\n    form = SQLFORM(db.t_building)\n    if form.process().accepted:\n        response.flash = 'form accepted';\n    elif form.errors:\n        response.flash = 'form has errors'\n    else:\n        response.flash = 'please fill out the form'\n    return dict(form=form)\n\n@auth.requires_login()\ndef t_floor_manage():\n    form = SQLFORM(db.t_floor)\n    if form.process().accepted:\n        response.flash = 'form accepted';\n    elif form.errors:\n        response.flash = 'form has errors'\n    else:\n        response.flash = 'please fill out the form'\n    return dict(form=form)\n\n@auth.requires_login()\ndef t_apartment_manage():\n    form = SQLFORM(db.t_apartment)\n    # .smartgrid(db.t_t_building,onupdate=auth.archive)\n    if form.process().accepted:\n        response.flash = 'form accepted';\n    elif form.errors:\n        response.flash = 'form has errors'\n    else:\n        response.flash = 'please fill out the form'\n    return dict(form=form)\n\n@auth.requires_login()\ndef t_apartment_type_manage():\n    form = SQLFORM(db.t_apartment_type)\n    if form.process().accepted:\n        response.flash = 'form accepted';\n    elif form.errors:\n        response.flash = 'form has errors'\n    else:\n        response.flash = 'please fill out the form'\n    return dict(form=form)\n\n\n@auth.requires_login()\ndef t_user_info_manage():\n    form = SQLFORM(db.t_user_info)\n    return form\n\n@auth.requires_login()\ndef t_contract_manage():\n    form = SQLFORM(db.t_contract)\n    # .smartgrid(db.t_t_building,onupdate=auth.archive)\n    if form.process().accepted:\n        response.flash = 'form accepted';\n    elif form.errors:\n        response.flash = 'form has errors'\n    else:\n        response.flash = 'please fill out the form'\n    return dict(form=form)\n\n@auth.requires_login()\ndef t_semester_manage():\n    form = SQLFORM(db.t_semester)\n    # .smartgrid(db.t_t_building,onupdate=auth.archive)\n    if form.process().accepted:\n        response.flash = 'form accepted';\n    elif form.errors:\n        response.flash = 'form has errors'\n    else:\n        response.flash = 'please fill out the form'\n    return dict(form=form)\n\n\n@auth.requires_login()\ndef t_parking_manage():\n    form = SQLFORM(db.t_parking)\n    # .smartgrid(db.t_t_building,onupdate=auth.archive)\n    if form.process().accepted:\n        response.flash = 'form accepted';\n    elif form.errors:\n        response.flash = 'form has errors'\n    else:\n        response.flash = 'please fill out the form'\n    return dict(form=form)\n\n@auth.requires_login()\ndef t_request_manage():\n    form = SQLFORM(db.t_request)\n    # .smartgrid(db.t_t_building,onupdate=auth.archive)\n    if form.process().accepted:\n        response.flash = 'form accepted';\n    elif form.errors:\n        response.flash = 'form has errors'\n    else:\n        response.flash = 'please fill out the form'\n    return dict(form=form)\n\n\n@auth.requires_login()\ndef t_request_comments_manage():\n    form = SQLFORM(db.t_request_comments)\n    # .smartgrid(db.t_t_building,onupdate=auth.archive)\n    if form.process().accepted:\n        response.flash = 'form accepted';\n    elif form.errors:\n        response.flash = 'form has errors'\n    else:\n        response.flash = 'please fill out the form'\n    return dict(form=form)\n\n\n@auth.requires_login()\ndef t_request_type_manage():\n    form = SQLFORM(db.t_request_type)\n    # .smartgrid(db.t_t_building,onupdate=auth.archive)\n    if form.process().accepted:\n        response.flash = 'form accepted';\n    elif form.errors:\n        response.flash = 'form has errors'\n    else:\n        response.flash = 'please fill out the form'\n    return dict(form=form)\n\n@auth.requires_login()\ndef t_room_manage():\n    form = SQLFORM(db.t_room)\n    # .smartgrid(db.t_t_building,onupdate=auth.archive)\n    if form.process().accepted:\n        response.flash = 'form accepted';\n    elif form.errors:\n        response.flash = 'form has errors'\n    else:\n        response.flash = 'please fill out the form'\n    return dict(form=form)\n\n\n@auth.requires_login()\ndef t_room_type_manage():\n    form = SQLFORM(db.t_room_type)\n    # .smartgrid(db.t_t_building,onupdate=auth.archive)\n    if form.process().accepted:\n        response.flash = 'form accepted';\n    elif form.errors:\n        response.flash = 'form has errors'\n    else:\n        response.flash = 'please fill out the form'\n    return dict(form=form)\n\ndef getAppartmentAvailables(apartmentNum):\n    return;\n\ndef getAvailables():\n    # get avail in rooms for each apartment ?return: JSON?\n    # returns it to view for processing\n    request.vars.type\n    request.vars.year\n    request.vars.gender\n    request.vars.semester\n    return db().select(db.t_building.ALL == request.vars.gender);\n\ndef submitContract():\n    # check room availabilities first\n    # then check to see if the desired room is available (function?)\n    request.vars.type\n    request.vars.year\n    request.vars.gender\n    request.vars.semester\n    request.vars.firstName\n    request.vars.lastName\n    request.vars.city\n    request.vars.state\n    request.vars.zip\n    request.vars.phone\n    request.vars.email\n    return request.vars.email;\n\ndef getSemesterDates():\n    return request.vars.year + request.vars.semester;\nresponse._vars=response._caller(getAvailables)\n"
p7
sS'snapshot'
p8
(dp9
S'exception'
p10
(dp11
S'__getslice__'
p12
S"<method-wrapper '__getslice__' of exceptions.SyntaxError object>"
p13
sS'text'
p14
S'None'
p15
sS'__str__'
p16
S"<method-wrapper '__str__' of exceptions.SyntaxError object>"
p17
sS'__reduce__'
p18
S'<built-in method __reduce__ of exceptions.SyntaxError object>'
p19
sS'__dict__'
p20
S'{}'
p21
sS'__sizeof__'
p22
S'<built-in method __sizeof__ of exceptions.SyntaxError object>'
p23
sS'__init__'
p24
S"<method-wrapper '__init__' of exceptions.SyntaxError object>"
p25
sS'__setattr__'
p26
S"<method-wrapper '__setattr__' of exceptions.SyntaxError object>"
p27
sS'__reduce_ex__'
p28
S'<built-in method __reduce_ex__ of exceptions.SyntaxError object>'
p29
sS'__new__'
p30
S'<built-in method __new__ of type object>'
p31
sS'__format__'
p32
S'<built-in method __format__ of exceptions.SyntaxError object>'
p33
sS'__class__'
p34
S"<type 'exceptions.SyntaxError'>"
p35
sS'filename'
p36
S'None'
p37
sS'lineno'
p38
S'None'
p39
sS'msg'
p40
S"'Set: no tables selected'"
p41
sS'__doc__'
p42
S"'Invalid syntax.'"
p43
sS'__getitem__'
p44
S"<method-wrapper '__getitem__' of exceptions.SyntaxError object>"
p45
sS'__setstate__'
p46
S'<built-in method __setstate__ of exceptions.SyntaxError object>'
p47
sS'__getattribute__'
p48
S"<method-wrapper '__getattribute__' of exceptions.SyntaxError object>"
p49
sS'print_file_and_line'
p50
S'None'
p51
sS'args'
p52
S"('Set: no tables selected',)"
p53
sS'__subclasshook__'
p54
S'<built-in method __subclasshook__ of type object>'
p55
sS'offset'
p56
S'None'
p57
sS'__unicode__'
p58
S'<built-in method __unicode__ of exceptions.SyntaxError object>'
p59
sS'__delattr__'
p60
S"<method-wrapper '__delattr__' of exceptions.SyntaxError object>"
p61
sS'__repr__'
p62
S"<method-wrapper '__repr__' of exceptions.SyntaxError object>"
p63
sS'__hash__'
p64
S"<method-wrapper '__hash__' of exceptions.SyntaxError object>"
p65
ssS'evalue'
p66
S'Set: no tables selected'
p67
sS'request'
p68
cgluon.html
XML_unpickle
p69
(S's Z\x00\x00<div><table><tr><td style="font-weight:bold;vertical-align:top;">ajax</td><td style="vertical-align:top;">:</td><td><div>True</div></td></tr><tr><td style="font-weight:bold;vertical-align:top;">application</td><td style="vertical-align:top;">:</td><td><div>wm</div></td></tr><tr><td style="font-weight:bold;vertical-align:top;">args</td><td style="vertical-align:top;">:</td><td><div><table></table></div></td></tr><tr><td style="font-weight:bold;vertical-align:top;">cid</td><td style="vertical-align:top;">:</td><td><div>None</div></td></tr><tr><td style="font-weight:bold;vertical-align:top;">client</td><td style="vertical-align:top;">:</td><td><div>127.0.0.1</div></td></tr><tr><td style="font-weight:bold;vertical-align:top;">controller</td><td style="vertical-align:top;">:</td><td><div>default</div></td></tr><tr><td style="font-weight:bold;vertical-align:top;">cookies</td><td style="vertical-align:top;">:</td><td><div><table><tr><td style="font-weight:bold;vertical-align:top;">session_id_admin</td><td style="vertical-align:top;">:</td><td><div>127.0.0.1-9dee61ba-2d17-4586-a191-974cf4e9c8a2<table><tr><td style="font-weight:bold;vertical-align:top;">comment</td><td style="vertical-align:top;">:</td><td><div></div></td></tr><tr><td style="font-weight:bold;vertical-align:top;">domain</td><td style="vertical-align:top;">:</td><td><div></div></td></tr><tr><td style="font-weight:bold;vertical-align:top;">expires</td><td style="vertical-align:top;">:</td><td><div></div></td></tr><tr><td style="font-weight:bold;vertical-align:top;">httponly</td><td style="vertical-align:top;">:</td><td><div></div></td></tr><tr><td style="font-weight:bold;vertical-align:top;">max-age</td><td style="vertical-align:top;">:</td><td><div></div></td></tr><tr><td style="font-weight:bold;vertical-align:top;">path</td><td style="vertical-align:top;">:</td><td><div></div></td></tr><tr><td style="font-weight:bold;vertical-align:top;">secure</td><td style="vertical-align:top;">:</td><td><div></div></td></tr><tr><td style="font-weight:bold;vertical-align:top;">version</td><td style="vertical-align:top;">:</td><td><div></div></td></tr></table></div></td></tr><tr><td style="font-weight:bold;vertical-align:top;">session_id_welcome</td><td style="vertical-align:top;">:</td><td><div>127.0.0.1-8f18f354-acc4-4436-83f6-ca1627eb2385<table><tr><td style="font-weight:bold;vertical-align:top;">comment</td><td style="vertical-align:top;">:</td><td><div></div></td></tr><tr><td style="font-weight:bold;vertical-align:top;">domain</td><td style="vertical-align:top;">:</td><td><div></div></td></tr><tr><td style="font-weight:bold;vertical-align:top;">expires</td><td style="vertical-align:top;">:</td><td><div></div></td></tr><tr><td style="font-weight:bold;vertical-align:top;">httponly</td><td style="vertical-align:top;">:</td><td><div></div></td></tr><tr><td style="font-weight:bold;vertical-align:top;">max-age</td><td style="vertical-align:top;">:</td><td><div></div></td></tr><tr><td style="font-weight:bold;vertical-align:top;">path</td><td style="vertical-align:top;">:</td><td><div></div></td></tr><tr><td style="font-weight:bold;vertical-align:top;">secure</td><td style="vertical-align:top;">:</td><td><div></div></td></tr><tr><td style="font-weight:bold;vertical-align:top;">version</td><td style="vertical-align:top;">:</td><td><div></div></td></tr></table></div></td></tr><tr><td style="font-weight:bold;vertical-align:top;">session_id_wm</td><td style="vertical-align:top;">:</td><td><div>127.0.0.1-e7ace2eb-20e5-4647-92f6-80b1753b6eaa<table><tr><td style="font-weight:bold;vertical-align:top;">comment</td><td style="vertical-align:top;">:</td><td><div></div></td></tr><tr><td style="font-weight:bold;vertical-align:top;">domain</td><td style="vertical-align:top;">:</td><td><div></div></td></tr><tr><td style="font-weight:bold;vertical-align:top;">expires</td><td style="vertical-align:top;">:</td><td><div></div></td></tr><tr><td style="font-weight:bold;vertical-align:top;">httponly</td><td style="vertical-align:top;">:</td><td><div></div></td></tr><tr><td style="font-weight:bold;vertical-align:top;">max-age</td><td style="vertical-align:top;">:</td><td><div></div></td></tr><tr><td style="font-weight:bold;vertical-align:top;">path</td><td style="vertical-align:top;">:</td><td><div></div></td></tr><tr><td style="font-weight:bold;vertical-align:top;">secure</td><td style="vertical-align:top;">:</td><td><div></div></td></tr><tr><td style="font-weight:bold;vertical-align:top;">version</td><td style="vertical-align:top;">:</td><td><div></div></td></tr></table></div></td></tr></table></div></td></tr><tr><td style="font-weight:bold;vertical-align:top;">env</td><td style="vertical-align:top;">:</td><td><div><table><tr><td style="font-weight:bold;vertical-align:top;">HTTP_ACCEPT</td><td style="vertical-align:top;">:</td><td><div>*/*</div></td></tr><tr><td style="font-weight:bold;vertical-align:top;">HTTP_ACCEPT_ENCODING</td><td style="vertical-align:top;">:</td><td><div>gzip, deflate</div></td></tr><tr><td style="font-weight:bold;vertical-align:top;">HTTP_ACCEPT_LANGUAGE</td><td style="vertical-align:top;">:</td><td><div>en-US,en;q=0.5</div></td></tr><tr><td style="font-weight:bold;vertical-align:top;">HTTP_CONNECTION</td><td style="vertical-align:top;">:</td><td><div>keep-alive</div></td></tr><tr><td style="font-weight:bold;vertical-align:top;">HTTP_COOKIE</td><td style="vertical-align:top;">:</td><td><div>session_id_welcome=127.0.0.1-8f18f354-acc4-4436-83f6-ca1627eb2385; session_id_admin=127.0.0.1-9dee61ba-2d17-4586-a191-974cf4e9c8a2; session_id_wm=127.0.0.1-e7ace2eb-20e5-4647-92f6-80b1753b6eaa</div></td></tr><tr><td style="font-weight:bold;vertical-align:top;">HTTP_HOST</td><td style="vertical-align:top;">:</td><td><div>127.0.0.1:8000</div></td></tr><tr><td style="font-weight:bold;vertical-align:top;">HTTP_REFERER</td><td style="vertical-align:top;">:</td><td><div>http://127.0.0.1:8000/wm/default/contract</div></td></tr><tr><td style="font-weight:bold;vertical-align:top;">HTTP_USER_AGENT</td><td style="vertical-align:top;">:</td><td><div>Mozilla/5.0 (X11; Ubuntu; Linux x86_64; rv:30.0) Gecko/20100101 Firefox/30.0</div></td></tr><tr><td style="font-weight:bold;vertical-align:top;">HTTP_X_REQUESTED_WITH</td><td style="vertical-align:top;">:</td><td><div>XMLHttpRequest</div></td></tr><tr><td style="font-weight:bold;vertical-align:top;">PATH_INFO</td><td style="vertical-align:top;">:</td><td><div>/wm/default/getAvailables</div></td></tr><tr><td style="font-weight:bold;vertical-align:top;">QUERY_STRING</td><td style="vertical-align:top;">:</td><td><div>year=&amp;gender=female&amp;semester=</div></td></tr><tr><td style="font-weight:bold;vertical-align:top;">REMOTE_ADDR</td><td style="vertical-align:top;">:</td><td><div>127.0.0.1</div></td></tr><tr><td style="font-weight:bold;vertical-align:top;">REMOTE_PORT</td><td style="vertical-align:top;">:</td><td><div>55066</div></td></tr><tr><td style="font-weight:bold;vertical-align:top;">REQUEST_METHOD</td><td style="vertical-align:top;">:</td><td><div>GET</div></td></tr><tr><td style="font-weight:bold;vertical-align:top;">SCRIPT_NAME</td><td style="vertical-align:top;">:</td><td><div></div></td></tr><tr><td style="font-weight:bold;vertical-align:top;">SERVER_NAME</td><td style="vertical-align:top;">:</td><td><div>Link</div></td></tr><tr><td style="font-weight:bold;vertical-align:top;">SERVER_PORT</td><td style="vertical-align:top;">:</td><td><div>8000</div></td></tr><tr><td style="font-weight:bold;vertical-align:top;">SERVER_PROTOCOL</td><td style="vertical-align:top;">:</td><td><div>HTTP/1.1</div></td></tr><tr><td style="font-weight:bold;vertical-align:top;">SERVER_SOFTWARE</td><td style="vertical-align:top;">:</td><td><div>Rocket 1.2.6</div></td></tr><tr><td style="font-weight:bold;vertical-align:top;">app_folders</td><td style="vertical-align:top;">:</td><td><div>set([&#x27;/home/chad/web2py/applications/wm/&#x27;, &#x27;/home/chad/web2py/applications/admin/&#x27;, &#x27;/home/chad/web2py/applications/welcome/&#x27;])</div></td></tr><tr><td style="font-weight:bold;vertical-align:top;">applications_parent</td><td style="vertical-align:top;">:</td><td><div>/home/chad/web2py</div></td></tr><tr><td style="font-weight:bold;vertical-align:top;">cmd_args</td><td style="vertical-align:top;">:</td><td><div><table></table></div></td></tr><tr><td style="font-weight:bold;vertical-align:top;">cmd_options</td><td style="vertical-align:top;">:</td><td><div>&lt;Values at 0x306c710: {&#x27;verbose&#x27;: False, &#x27;ip&#x27;: &#x27;127.0.0.1&#x27;, &#x27;debuglevel&#x27;: 30, &#x27;with_scheduler&#x27;: False, &#x27;ips&#x27;: [&#x27;127.0.1.1&#x27;], &#x27;shutdown_timeout&#x27;: 5, &#x27;taskbar&#x27;: False, &#x27;with_coverage&#x27;: False, &#x27;port&#x27;: 8000, &#x27;maxthreads&#x27;: None, &#x27;softcron&#x27;: False, &#x27;server_name&#x27;: &#x27;Link&#x27;, &#x27;bpython&#x27;: False, &#x27;nogui&#x27;: False, &#x27;pid_filename&#x27;: &#x27;httpserver.pid&#x27;, &#x27;extcron&#x27;: False, &#x27;runcron&#x27;: False, &#x27;run_system_tests&#x27;: False, &#x27;test&#x27;: None, &#x27;folder&#x27;: &#x27;/home/chad/web2py&#x27;, &#x27;config&#x27;: &#x27;&#x27;, &#x27;minthreads&#x27;: None, &#x27;shell&#x27;: None, &#x27;run&#x27;: &#x27;&#x27;, &#x27;log_filename&#x27;: &#x27;httpserver.log&#x27;, &#x27;profiler_dir&#x27;: None, &#x27;args&#x27;: [&#x27;&#x27;], &#x27;socket_timeout&#x27;: 5, &#x27;ssl_ca_certificate&#x27;: None, &#x27;scheduler&#x27;: None, &#x27;interfaces&#x27;: None, &#x27;ssl_private_key&#x27;: &#x27;&#x27;, &#x27;scheduler_groups&#x27;: None, &#x27;password&#x27;: &#x27;&lt;ask&gt;&#x27;, &#x27;request_queue_size&#x27;: 5, &#x27;ssl_certificate&#x27;: &#x27;&#x27;, &#x27;cronjob&#x27;: False, &#x27;numthreads&#x27;: None, &#x27;quiet&#x27;: False, &#x27;import_models&#x27;: False, &#x27;timeout&#x27;: 10, &#x27;plain&#x27;: False, &#x27;nobanner&#x27;: False}&gt;</div></td></tr><tr><td style="font-weight:bold;vertical-align:top;">db_sessions</td><td style="vertical-align:top;">:</td><td><div>set([])</div></td></tr><tr><td style="font-weight:bold;vertical-align:top;">debugging</td><td style="vertical-align:top;">:</td><td><div>True</div></td></tr><tr><td style="font-weight:bold;vertical-align:top;">gluon_parent</td><td style="vertical-align:top;">:</td><td><div>/home/chad/web2py</div></td></tr><tr><td style="font-weight:bold;vertical-align:top;">http_accept</td><td style="vertical-align:top;">:</td><td><div>*/*</div></td></tr><tr><td style="font-weight:bold;vertical-align:top;">http_accept_encoding</td><td style="vertical-align:top;">:</td><td><div>gzip, deflate</div></td></tr><tr><td style="font-weight:bold;vertical-align:top;">http_accept_language</td><td style="vertical-align:top;">:</td><td><div>en-US,en;q=0.5</div></td></tr><tr><td style="font-weight:bold;vertical-align:top;">http_connection</td><td style="vertical-align:top;">:</td><td><div>keep-alive</div></td></tr><tr><td style="font-weight:bold;vertical-align:top;">http_cookie</td><td style="vertical-align:top;">:</td><td><div>session_id_welcome=127.0.0.1-8f18f354-acc4-4436-83f6-ca1627eb2385; session_id_admin=127.0.0.1-9dee61ba-2d17-4586-a191-974cf4e9c8a2; session_id_wm=127.0.0.1-e7ace2eb-20e5-4647-92f6-80b1753b6eaa</div></td></tr><tr><td style="font-weight:bold;vertical-align:top;">http_host</td><td style="vertical-align:top;">:</td><td><div>127.0.0.1:8000</div></td></tr><tr><td style="font-weight:bold;vertical-align:top;">http_referer</td><td style="vertical-align:top;">:</td><td><div>http://127.0.0.1:8000/wm/default/contract</div></td></tr><tr><td style="font-weight:bold;vertical-align:top;">http_user_agent</td><td style="vertical-align:top;">:</td><td><div>Mozilla/5.0 (X11; Ubuntu; Linux x86_64; rv:30.0) Gecko/20100101 Firefox/30.0</div></td></tr><tr><td style="font-weight:bold;vertical-align:top;">http_x_requested_with</td><td style="vertical-align:top;">:</td><td><div>XMLHttpRequest</div></td></tr><tr><td style="font-weight:bold;vertical-align:top;">is_jython</td><td style="vertical-align:top;">:</td><td><div>False</div></td></tr><tr><td style="font-weight:bold;vertical-align:top;">is_pypy</td><td style="vertical-align:top;">:</td><td><div>False</div></td></tr><tr><td style="font-weight:bold;vertical-align:top;">is_source</td><td style="vertical-align:top;">:</td><td><div>True</div></td></tr><tr><td style="font-weight:bold;vertical-align:top;">local_hosts</td><td style="vertical-align:top;">:</td><td><div><table><tr><td><div>::1</div></td></tr><tr><td><div>127.0.1.1</div></td></tr><tr><td><div>Link</div></td></tr><tr><td><div>::ffff:127.0.0.1</div></td></tr><tr><td><div>127.0.0.1</div></td></tr></table></div></td></tr><tr><td style="font-weight:bold;vertical-align:top;">path_info</td><td style="vertical-align:top;">:</td><td><div>/wm/default/getAvailables</div></td></tr><tr><td style="font-weight:bold;vertical-align:top;">query_string</td><td style="vertical-align:top;">:</td><td><div>year=&amp;gender=female&amp;semester=</div></td></tr><tr><td style="font-weight:bold;vertical-align:top;">remote_addr</td><td style="vertical-align:top;">:</td><td><div>127.0.0.1</div></td></tr><tr><td style="font-weight:bold;vertical-align:top;">remote_port</td><td style="vertical-align:top;">:</td><td><div>55066</div></td></tr><tr><td style="font-weight:bold;vertical-align:top;">request_method</td><td style="vertical-align:top;">:</td><td><div>GET</div></td></tr><tr><td style="font-weight:bold;vertical-align:top;">request_uri</td><td style="vertical-align:top;">:</td><td><div>/wm/default/getAvailables?year=&amp;gender=female&amp;semester=</div></td></tr><tr><td style="font-weight:bold;vertical-align:top;">script_name</td><td style="vertical-align:top;">:</td><td><div></div></td></tr><tr><td style="font-weight:bold;vertical-align:top;">server_name</td><td style="vertical-align:top;">:</td><td><div>Link</div></td></tr><tr><td style="font-weight:bold;vertical-align:top;">server_port</td><td style="vertical-align:top;">:</td><td><div>8000</div></td></tr><tr><td style="font-weight:bold;vertical-align:top;">server_protocol</td><td style="vertical-align:top;">:</td><td><div>HTTP/1.1</div></td></tr><tr><td style="font-weight:bold;vertical-align:top;">server_software</td><td style="vertical-align:top;">:</td><td><div>Rocket 1.2.6</div></td></tr><tr><td style="font-weight:bold;vertical-align:top;">web2py_path</td><td style="vertical-align:top;">:</td><td><div>/home/chad/web2py</div></td></tr><tr><td style="font-weight:bold;vertical-align:top;">web2py_version</td><td style="vertical-align:top;">:</td><td><div>2.9.5-stable+timestamp.2014.03.16.02.35.39</div></td></tr><tr><td style="font-weight:bold;vertical-align:top;">wsgi.errors</td><td style="vertical-align:top;">:</td><td><div>&lt;open file &#x27;&lt;stderr&gt;&#x27;, mode &#x27;w&#x27; at 0x7fe81d91c270&gt;</div></td></tr><tr><td style="font-weight:bold;vertical-align:top;">wsgi.file_wrapper</td><td style="vertical-align:top;">:</td><td><div>&lt;class wsgiref.util.FileWrapper at 0x2fdae20&gt;</div></td></tr><tr><td style="font-weight:bold;vertical-align:top;">wsgi.input</td><td style="vertical-align:top;">:</td><td><div>&lt;socket._fileobject object at 0x7fe7ed1d8ad0&gt;</div></td></tr><tr><td style="font-weight:bold;vertical-align:top;">wsgi.multiprocess</td><td style="vertical-align:top;">:</td><td><div>False</div></td></tr><tr><td style="font-weight:bold;vertical-align:top;">wsgi.multithread</td><td style="vertical-align:top;">:</td><td><div>True</div></td></tr><tr><td style="font-weight:bold;vertical-align:top;">wsgi.run_once</td><td style="vertical-align:top;">:</td><td><div>False</div></td></tr><tr><td style="font-weight:bold;vertical-align:top;">wsgi.url_scheme</td><td style="vertical-align:top;">:</td><td><div>http</div></td></tr><tr><td style="font-weight:bold;vertical-align:top;">wsgi.version</td><td style="vertical-align:top;">:</td><td><div><table><tr><td><div>1</div></td></tr><tr><td><div>0</div></td></tr></table></div></td></tr><tr><td style="font-weight:bold;vertical-align:top;">wsgi_errors</td><td style="vertical-align:top;">:</td><td><div>&lt;open file &#x27;&lt;stderr&gt;&#x27;, mode &#x27;w&#x27; at 0x7fe81d91c270&gt;</div></td></tr><tr><td style="font-weight:bold;vertical-align:top;">wsgi_file_wrapper</td><td style="vertical-align:top;">:</td><td><div>&lt;class wsgiref.util.FileWrapper at 0x2fdae20&gt;</div></td></tr><tr><td style="font-weight:bold;vertical-align:top;">wsgi_input</td><td style="vertical-align:top;">:</td><td><div>&lt;socket._fileobject object at 0x7fe7ed1d8ad0&gt;</div></td></tr><tr><td style="font-weight:bold;vertical-align:top;">wsgi_multiprocess</td><td style="vertical-align:top;">:</td><td><div>False</div></td></tr><tr><td style="font-weight:bold;vertical-align:top;">wsgi_multithread</td><td style="vertical-align:top;">:</td><td><div>True</div></td></tr><tr><td style="font-weight:bold;vertical-align:top;">wsgi_run_once</td><td style="vertical-align:top;">:</td><td><div>False</div></td></tr><tr><td style="font-weight:bold;vertical-align:top;">wsgi_url_scheme</td><td style="vertical-align:top;">:</td><td><div>http</div></td></tr><tr><td style="font-weight:bold;vertical-align:top;">wsgi_version</td><td style="vertical-align:top;">:</td><td><div><table><tr><td><div>1</div></td></tr><tr><td><div>0</div></td></tr></table></div></td></tr></table></div></td></tr><tr><td style="font-weight:bold;vertical-align:top;">extension</td><td style="vertical-align:top;">:</td><td><div>html</div></td></tr><tr><td style="font-weight:bold;vertical-align:top;">folder</td><td style="vertical-align:top;">:</td><td><div>/home/chad/web2py/applications/wm/</div></td></tr><tr><td style="font-weight:bold;vertical-align:top;">function</td><td style="vertical-align:top;">:</td><td><div>getAvailables</div></td></tr><tr><td style="font-weight:bold;vertical-align:top;">global_settings</td><td style="vertical-align:top;">:</td><td><div><table><tr><td style="font-weight:bold;vertical-align:top;">app_folders</td><td style="vertical-align:top;">:</td><td><div>set([&#x27;/home/chad/web2py/applications/wm/&#x27;, &#x27;/home/chad/web2py/applications/admin/&#x27;, &#x27;/home/chad/web2py/applications/welcome/&#x27;])</div></td></tr><tr><td style="font-weight:bold;vertical-align:top;">applications_parent</td><td style="vertical-align:top;">:</td><td><div>/home/chad/web2py</div></td></tr><tr><td style="font-weight:bold;vertical-align:top;">cmd_args</td><td style="vertical-align:top;">:</td><td><div><table></table></div></td></tr><tr><td style="font-weight:bold;vertical-align:top;">cmd_options</td><td style="vertical-align:top;">:</td><td><div>&lt;Values at 0x306c710: {&#x27;verbose&#x27;: False, &#x27;ip&#x27;: &#x27;127.0.0.1&#x27;, &#x27;debuglevel&#x27;: 30, &#x27;with_scheduler&#x27;: False, &#x27;ips&#x27;: [&#x27;127.0.1.1&#x27;], &#x27;shutdown_timeout&#x27;: 5, &#x27;taskbar&#x27;: False, &#x27;with_coverage&#x27;: False, &#x27;port&#x27;: 8000, &#x27;maxthreads&#x27;: None, &#x27;softcron&#x27;: False, &#x27;server_name&#x27;: &#x27;Link&#x27;, &#x27;bpython&#x27;: False, &#x27;nogui&#x27;: False, &#x27;pid_filename&#x27;: &#x27;httpserver.pid&#x27;, &#x27;extcron&#x27;: False, &#x27;runcron&#x27;: False, &#x27;run_system_tests&#x27;: False, &#x27;test&#x27;: None, &#x27;folder&#x27;: &#x27;/home/chad/web2py&#x27;, &#x27;config&#x27;: &#x27;&#x27;, &#x27;minthreads&#x27;: None, &#x27;shell&#x27;: None, &#x27;run&#x27;: &#x27;&#x27;, &#x27;log_filename&#x27;: &#x27;httpserver.log&#x27;, &#x27;profiler_dir&#x27;: None, &#x27;args&#x27;: [&#x27;&#x27;], &#x27;socket_timeout&#x27;: 5, &#x27;ssl_ca_certificate&#x27;: None, &#x27;scheduler&#x27;: None, &#x27;interfaces&#x27;: None, &#x27;ssl_private_key&#x27;: &#x27;&#x27;, &#x27;scheduler_groups&#x27;: None, &#x27;password&#x27;: &#x27;&lt;ask&gt;&#x27;, &#x27;request_queue_size&#x27;: 5, &#x27;ssl_certificate&#x27;: &#x27;&#x27;, &#x27;cronjob&#x27;: False, &#x27;numthreads&#x27;: None, &#x27;quiet&#x27;: False, &#x27;import_models&#x27;: False, &#x27;timeout&#x27;: 10, &#x27;plain&#x27;: False, &#x27;nobanner&#x27;: False}&gt;</div></td></tr><tr><td style="font-weight:bold;vertical-align:top;">db_sessions</td><td style="vertical-align:top;">:</td><td><div>set([])</div></td></tr><tr><td style="font-weight:bold;vertical-align:top;">debugging</td><td style="vertical-align:top;">:</td><td><div>True</div></td></tr><tr><td style="font-weight:bold;vertical-align:top;">gluon_parent</td><td style="vertical-align:top;">:</td><td><div>/home/chad/web2py</div></td></tr><tr><td style="font-weight:bold;vertical-align:top;">is_jython</td><td style="vertical-align:top;">:</td><td><div>False</div></td></tr><tr><td style="font-weight:bold;vertical-align:top;">is_pypy</td><td style="vertical-align:top;">:</td><td><div>False</div></td></tr><tr><td style="font-weight:bold;vertical-align:top;">is_source</td><td style="vertical-align:top;">:</td><td><div>True</div></td></tr><tr><td style="font-weight:bold;vertical-align:top;">local_hosts</td><td style="vertical-align:top;">:</td><td><div><table><tr><td><div>::1</div></td></tr><tr><td><div>127.0.1.1</div></td></tr><tr><td><div>Link</div></td></tr><tr><td><div>::ffff:127.0.0.1</div></td></tr><tr><td><div>127.0.0.1</div></td></tr></table></div></td></tr><tr><td style="font-weight:bold;vertical-align:top;">web2py_version</td><td style="vertical-align:top;">:</td><td><div>2.9.5-stable+timestamp.2014.03.16.02.35.39</div></td></tr></table></div></td></tr><tr><td style="font-weight:bold;vertical-align:top;">is_https</td><td style="vertical-align:top;">:</td><td><div>False</div></td></tr><tr><td style="font-weight:bold;vertical-align:top;">is_local</td><td style="vertical-align:top;">:</td><td><div>True</div></td></tr><tr><td style="font-weight:bold;vertical-align:top;">is_restful</td><td style="vertical-align:top;">:</td><td><div>False</div></td></tr><tr><td style="font-weight:bold;vertical-align:top;">now</td><td style="vertical-align:top;">:</td><td><div>datetime.datetime(2014, 7, 11, 19, 2, 35, 324824)</div></td></tr><tr><td style="font-weight:bold;vertical-align:top;">raw_args</td><td style="vertical-align:top;">:</td><td><div></div></td></tr><tr><td style="font-weight:bold;vertical-align:top;">raw_extension</td><td style="vertical-align:top;">:</td><td><div>None</div></td></tr><tr><td style="font-weight:bold;vertical-align:top;">url</td><td style="vertical-align:top;">:</td><td><div>/wm/default/getAvailables</div></td></tr><tr><td style="font-weight:bold;vertical-align:top;">utcnow</td><td style="vertical-align:top;">:</td><td><div>datetime.datetime(2014, 7, 12, 1, 2, 35, 324852)</div></td></tr><tr><td style="font-weight:bold;vertical-align:top;">uuid</td><td style="vertical-align:top;">:</td><td><div>wm/127.0.0.1.2014-07-11.19-02-35.0fb5d013-96a5-43b9-8b69-f57093be05cc</div></td></tr><tr><td style="font-weight:bold;vertical-align:top;">wsgi</td><td style="vertical-align:top;">:</td><td><div>&lt;gluon.main.LazyWSGI object at 0x7fe7f4270550&gt;</div></td></tr></table></div>'
tRp70
sS'frames'
p71
(lp72
(dp73
S'file'
p74
S'/home/chad/web2py/gluon/restricted.py'
p75
sS'dump'
p76
(dp77
S'environment'
p78
S"{'A': <class 'gluon.html.A'>, 'ANY_OF': <class 'gluon.validators.ANY_OF'>, 'Admin': <module 'applications.wm.modules.Admin' from 'applications/wm/modules/Admin.pyc'>, 'Auth': <class 'gluon.tools.Auth'>, 'B': <class 'gluon.html.B'>, 'BEAUTIFY': <class 'gluon.html.BEAUTIFY'>, 'BODY': <class 'gluon.html.BODY'>, 'BR': <class 'gluon.html.BR'>, 'BUTTON': <class 'gluon.html.BUTTON'>, 'CAT': <class 'gluon.html.CAT'>, ...}"
p79
sS'ccode'
p80
S'<code object <module> at 0x7fe7dcb7bcb0, file "/.../applications/wm/controllers/default.py", line 3>'
p81
ssS'lnum'
p82
I220
sS'lines'
p83
(dp84
I224
S'        # do not encapsulate (obfuscate) the original RestrictedError'
p85
sI215
S'    try:'
p86
sI216
S'        if isinstance(code, types.CodeType):'
p87
sI217
S'            ccode = code'
p88
sI218
S'        else:'
p89
sI219
S'            ccode = compile2(code, layer)'
p90
sI220
S'        exec ccode in environment'
p91
sI221
S'    except HTTP:'
p92
sI222
S'        raise'
p93
sI223
S'    except RestrictedError:'
p94
ssS'call'
p95
S"(code='# -*- coding: utf-8 -*-\\n### required - do no del...;\\nresponse._vars=response._caller(getAvailables)\\n', environment={'A': <class 'gluon.html.A'>, 'ANY_OF': <class 'gluon.validators.ANY_OF'>, 'Admin': <module 'applications.wm.modules.Admin' from 'applications/wm/modules/Admin.pyc'>, 'Auth': <class 'gluon.tools.Auth'>, 'B': <class 'gluon.html.B'>, 'BEAUTIFY': <class 'gluon.html.BEAUTIFY'>, 'BODY': <class 'gluon.html.BODY'>, 'BR': <class 'gluon.html.BR'>, 'BUTTON': <class 'gluon.html.BUTTON'>, 'CAT': <class 'gluon.html.CAT'>, ...}, layer='/home/chad/web2py/applications/wm/controllers/default.py')"
p96
sS'func'
p97
S'restricted'
p98
sa(dp99
g74
S'/home/chad/web2py/applications/wm/controllers/default.py'
p100
sg76
(dp101
sg82
I267
sg83
(dp102
I257
S'    request.vars.lastName'
p103
sI258
S'    request.vars.city'
p104
sI259
S'    request.vars.state'
p105
sI260
S'    request.vars.zip'
p106
sI261
S'    request.vars.phone'
p107
sI262
S'    request.vars.email'
p108
sI263
S'    return request.vars.email;'
p109
sI264
S''
sI265
S'def getSemesterDates():'
p110
sI266
S'    return request.vars.year + request.vars.semester;'
p111
ssg95
S'()'
p112
sg97
S'<module>'
p113
sa(dp114
g74
S'/home/chad/web2py/gluon/globals.py'
p115
sg76
(dp116
S'self'
p117
S'undefined'
p118
sS'f'
S'<function getAvailables>'
p119
ssg82
I385
sg83
(dp120
I384
S'        self._vars = None'
p121
sI385
S'        self._caller = lambda f: f()'
p122
sI386
S'        self._view_environment = None'
p123
sI387
S'        self._custom_commit = None'
p124
sI388
S'        self._custom_rollback = None'
p125
sI389
S''
sI380
S'        self.menu = []             # used by the default view layout'
p126
sI381
S'        self.files = []            # used by web2py_ajax.html'
p127
sI382
S'        self.generic_patterns = []  # patterns to allow generic views'
p128
sI383
S"        self.delimiters = ('{{', '}}')"
p129
ssg95
S'(f=<function getAvailables>)'
p130
sg97
S'<lambda>'
p131
sa(dp132
g74
S'/home/chad/web2py/applications/wm/controllers/default.py'
p133
sg76
(dp134
S'global request'
p135
S"<Storage {'_vars': <Storage {'gender': 'female',... 'folder': '/home/chad/web2py/applications/wm/'}>"
p136
sS').select'
p137
g118
sS'request.vars.gender'
p138
S"'female'"
p139
sS'request.vars'
p140
S"<Storage {'gender': 'female', 'semester': '', 'year': ''}>"
p141
sS'global db'
p142
S'<DAL uri="sqlite://storage.sqlite">'
p143
sS'db.t_building.ALL'
p144
S'<gluon.dal.SQLALL object>'
p145
sS'db.t_building'
p146
S'<Table t_building (id,f_building_number,f_buildi...e,created_on,created_by,modified_on,modified_by)>'
p147
ssg82
I247
sg83
(dp148
I242
S'    # returns it to view for processing'
p149
sI243
S'    request.vars.type'
p150
sI244
S'    request.vars.year'
p151
sI245
S'    request.vars.gender'
p152
sI246
S'    request.vars.semester'
p153
sI247
S'    return db().select(db.t_building.ALL == request.vars.gender);'
p154
sI248
S''
sI249
S'def submitContract():'
p155
sI250
S'    # check room availabilities first'
p156
sI251
S'    # then check to see if the desired room is available (function?)'
p157
ssg95
S'()'
p158
sg97
S'getAvailables'
p159
sa(dp160
g74
S'/home/chad/web2py/gluon/dal.py'
p161
sg76
(dp162
S'self.query'
p163
S'None'
p164
sS'adapter.select'
p165
S'<bound method SQLiteAdapter.select of <gluon.dal.SQLiteAdapter object>>'
p166
sS'fields'
p167
S'[False]'
p168
sS'adapter'
p169
S'<gluon.dal.SQLiteAdapter object>'
p170
sS'attributes'
p171
g21
sS'self'
p172
S'<Set None>'
p173
ssg82
I10525
sg83
(dp174
I10528
S'        return Expression(self.db,self._select(*fields,**attributes))'
p175
sI10529
S''
sI10520
S"                                    attributes.get('join',None),"
p176
sI10521
S"                                    attributes.get('left',None),"
p177
sI10522
S"                                    attributes.get('orderby',None),"
p178
sI10523
S"                                    attributes.get('groupby',None))"
p179
sI10524
S'        fields = adapter.expand_all(fields, tablenames)'
p180
sI10525
S'        return adapter.select(self.query,fields,attributes)'
p181
sI10526
S''
sI10527
S'    def nested_select(self,*fields,**attributes):'
p182
ssg95
S'(self=<Set None>, *fields=[False], **attributes={})'
p183
sg97
S'select'
p184
sa(dp185
g74
S'/home/chad/web2py/gluon/dal.py'
p186
sg76
(dp187
S'fields'
p188
S'[False]'
p189
sS'self'
p190
S'<gluon.dal.SQLiteAdapter object>'
p191
sS').select'
p192
S'<bound method SQLiteAdapter.select of <gluon.dal.SQLiteAdapter object>>'
p193
sS'attributes'
p194
g21
sS'global SQLiteAdapter'
p195
S"<class 'gluon.dal.SQLiteAdapter'>"
p196
sS'query'
p197
S'None'
p198
sS'builtinsuper'
p199
S"<type 'super'>"
p200
ssg82
I2458
sg83
(dp201
I2453
S'        Note that the entire database, rather than one record, is locked'
p202
sI2454
S'        (it will be locked eventually anyway by the following UPDATE).'
p203
sI2455
S'        """'
p204
sI2456
S"        if attributes.get('for_update', False) and not 'cache' in attributes:"
p205
sI2457
S"            self.execute('BEGIN IMMEDIATE TRANSACTION;')"
p206
sI2458
S'        return super(SQLiteAdapter, self).select(query, fields, attributes)'
p207
sI2459
S''
sI2460
S'class SpatiaLiteAdapter(SQLiteAdapter):'
p208
sI2461
S"    drivers = ('sqlite3','sqlite2')"
p209
sI2462
S''
ssg95
S'(self=<gluon.dal.SQLiteAdapter object>, query=None, fields=[False], attributes={})'
p210
sg97
g184
sa(dp211
g74
S'/home/chad/web2py/gluon/dal.py'
p212
sg76
(dp213
S'self._select'
p214
S'<bound method SQLiteAdapter._select of <gluon.dal.SQLiteAdapter object>>'
p215
sS'fields'
p216
S'[False]'
p217
sS'self'
p218
S'<gluon.dal.SQLiteAdapter object>'
p219
sS'sql'
p220
g118
sS'query'
p221
S'None'
p222
sS'attributes'
p223
g21
ssg82
I1869
sg83
(dp224
I1864
S''
sI1865
S'    def select(self, query, fields, attributes):'
p225
sI1866
S'        """'
p226
sI1867
S'        Always returns a Rows object, possibly empty.'
p227
sI1868
S'        """'
p228
sI1869
S'        sql = self._select(query, fields, attributes)'
p229
sI1870
S"        cache = attributes.get('cache', None)"
p230
sI1871
S"        if cache and attributes.get('cacheable',False):"
p231
sI1872
S"            del attributes['cache']"
p232
sI1873
S'            (cache_model, time_expire) = cache'
p233
ssg95
S'(self=<gluon.dal.SQLiteAdapter object>, query=None, fields=[False], attributes={})'
p234
sg97
g184
sa(dp235
g74
S'/home/chad/web2py/gluon/dal.py'
p236
sg76
(dp237
S'builtinSyntaxError'
p238
S"<type 'exceptions.SyntaxError'>"
p239
ssg82
I1708
sg83
(dp240
I1703
S'            for tablename in tables(field):'
p241
sI1704
S'                if not tablename in tablenames:'
p242
sI1705
S'                    tablenames.append(tablename)'
p243
sI1706
S''
sI1707
S'        if len(tablenames) < 1:'
p244
sI1708
S"            raise SyntaxError('Set: no tables selected')"
p245
sI1709
S'        def colexpand(field):'
p246
sI1710
S'            return self.expand(field, colnames=True)'
p247
sI1711
S'        self._colnames = map(colexpand, fields)'
p248
sI1712
S'        def geoexpand(field):'
p249
ssg95
S'(self=<gluon.dal.SQLiteAdapter object>, query=None, fields=[False], attributes={})'
p250
sg97
S'_select'
p251
sasS'pyver'
p252
S'Python 2.7.3: /usr/bin/python (prefix: /usr)'
p253
sS'session'
p254
g69
(S's<\x01\x00\x00<div><table><tr><td style="font-weight:bold;vertical-align:top;">last_orderby</td><td style="vertical-align:top;">:</td><td><div>None</div></td></tr><tr><td style="font-weight:bold;vertical-align:top;">last_query</td><td style="vertical-align:top;">:</td><td><div>db.t_apartment.id&gt;0</div></td></tr></table></div>'
tRp255
sS'etype'
p256
S"<type 'exceptions.SyntaxError'>"
p257
sS'date'
p258
S'Fri Jul 11 19:02:36 2014'
p259
sS'response'
p260
g69
(S's\xb7\x1c\x00\x00<div><table><tr><td style="font-weight:bold;vertical-align:top;">body</td><td style="vertical-align:top;">:</td><td><div>&lt;cStringIO.StringO object at 0x7fe7e83d8a78&gt;</div></td></tr><tr><td style="font-weight:bold;vertical-align:top;">cookies</td><td style="vertical-align:top;">:</td><td><div><table><tr><td style="font-weight:bold;vertical-align:top;">session_id_wm</td><td style="vertical-align:top;">:</td><td><div>127.0.0.1-e7ace2eb-20e5-4647-92f6-80b1753b6eaa<table><tr><td style="font-weight:bold;vertical-align:top;">comment</td><td style="vertical-align:top;">:</td><td><div></div></td></tr><tr><td style="font-weight:bold;vertical-align:top;">domain</td><td style="vertical-align:top;">:</td><td><div></div></td></tr><tr><td style="font-weight:bold;vertical-align:top;">expires</td><td style="vertical-align:top;">:</td><td><div></div></td></tr><tr><td style="font-weight:bold;vertical-align:top;">httponly</td><td style="vertical-align:top;">:</td><td><div></div></td></tr><tr><td style="font-weight:bold;vertical-align:top;">max-age</td><td style="vertical-align:top;">:</td><td><div></div></td></tr><tr><td style="font-weight:bold;vertical-align:top;">path</td><td style="vertical-align:top;">:</td><td><div>/</div></td></tr><tr><td style="font-weight:bold;vertical-align:top;">secure</td><td style="vertical-align:top;">:</td><td><div></div></td></tr><tr><td style="font-weight:bold;vertical-align:top;">version</td><td style="vertical-align:top;">:</td><td><div></div></td></tr></table></div></td></tr></table></div></td></tr><tr><td style="font-weight:bold;vertical-align:top;">delimiters</td><td style="vertical-align:top;">:</td><td><div><table><tr><td><div>{{</div></td></tr><tr><td><div>}}</div></td></tr></table></div></td></tr><tr><td style="font-weight:bold;vertical-align:top;">files</td><td style="vertical-align:top;">:</td><td><div><table></table></div></td></tr><tr><td style="font-weight:bold;vertical-align:top;">flash</td><td style="vertical-align:top;">:</td><td><div></div></td></tr><tr><td style="font-weight:bold;vertical-align:top;">generic_patterns</td><td style="vertical-align:top;">:</td><td><div><table><tr><td><div>*</div></td></tr></table></div></td></tr><tr><td style="font-weight:bold;vertical-align:top;">headers</td><td style="vertical-align:top;">:</td><td><div><table><tr><td style="font-weight:bold;vertical-align:top;">X-Powered-By</td><td style="vertical-align:top;">:</td><td><div>web2py</div></td></tr></table></div></td></tr><tr><td style="font-weight:bold;vertical-align:top;">menu</td><td style="vertical-align:top;">:</td><td><div><table><tr><td><div><table><tr><td><div>Home</div></td></tr><tr><td><div>False</div></td></tr><tr><td><div>/wm/default/index</div></td></tr><tr><td><div><table></table></div></td></tr></table></div></td></tr><tr><td><div><table><tr><td><div>Contracts</div></td></tr><tr><td><div>False</div></td></tr><tr><td><div>/wm/default/contract</div></td></tr><tr><td><div><table></table></div></td></tr></table></div></td></tr><tr><td><div><table><tr><td><div>About</div></td></tr><tr><td><div>False</div></td></tr><tr><td><div>/wm/default/about</div></td></tr><tr><td><div><table></table></div></td></tr></table></div></td></tr><tr><td><div><table><tr><td><div>Contact</div></td></tr><tr><td><div>False</div></td></tr><tr><td><div>/wm/default/contact</div></td></tr><tr><td><div><table></table></div></td></tr></table></div></td></tr></table></div></td></tr><tr><td style="font-weight:bold;vertical-align:top;">meta</td><td style="vertical-align:top;">:</td><td><div><table><tr><td style="font-weight:bold;vertical-align:top;">author</td><td style="vertical-align:top;">:</td><td><div>RBD-Center &lt;info@rbdcenter.org&gt;</div></td></tr><tr><td style="font-weight:bold;vertical-align:top;">description</td><td style="vertical-align:top;">:</td><td><div></div></td></tr><tr><td style="font-weight:bold;vertical-align:top;">keywords</td><td style="vertical-align:top;">:</td><td><div></div></td></tr></table></div></td></tr><tr><td style="font-weight:bold;vertical-align:top;">models_to_run</td><td style="vertical-align:top;">:</td><td><div><table><tr><td><div>^\\w+\\.py$</div></td></tr><tr><td><div>^default/\\w+\\.py$</div></td></tr><tr><td><div>^default/getAvailables/\\w+\\.py$</div></td></tr></table></div></td></tr><tr><td style="font-weight:bold;vertical-align:top;">postprocessing</td><td style="vertical-align:top;">:</td><td><div><table></table></div></td></tr><tr><td style="font-weight:bold;vertical-align:top;">session_client</td><td style="vertical-align:top;">:</td><td><div>127.0.0.1</div></td></tr><tr><td style="font-weight:bold;vertical-align:top;">session_cookie_compression_level</td><td style="vertical-align:top;">:</td><td><div>None</div></td></tr><tr><td style="font-weight:bold;vertical-align:top;">session_cookie_expires</td><td style="vertical-align:top;">:</td><td><div>None</div></td></tr><tr><td style="font-weight:bold;vertical-align:top;">session_cookie_key</td><td style="vertical-align:top;">:</td><td><div>None</div></td></tr><tr><td style="font-weight:bold;vertical-align:top;">session_data_name</td><td style="vertical-align:top;">:</td><td><div>session_data_wm</div></td></tr><tr><td style="font-weight:bold;vertical-align:top;">session_file</td><td style="vertical-align:top;">:</td><td><div>&lt;open file &#x27;/home/chad/web2py/applications/wm/sessions/127.0.0.1-e7ace2eb-20e5-4647-92f6-80b1753b6eaa&#x27;, mode &#x27;rb+&#x27; at 0x7fe7dcb6e540&gt;</div></td></tr><tr><td style="font-weight:bold;vertical-align:top;">session_filename</td><td style="vertical-align:top;">:</td><td><div>/home/chad/web2py/applications/wm/sessions/127.0.0.1-e7ace2eb-20e5-4647-92f6-80b1753b6eaa</div></td></tr><tr><td style="font-weight:bold;vertical-align:top;">session_hash</td><td style="vertical-align:top;">:</td><td><div>55bb8bc9371a84a620b9dd3c0cc7264e</div></td></tr><tr><td style="font-weight:bold;vertical-align:top;">session_id</td><td style="vertical-align:top;">:</td><td><div>127.0.0.1-e7ace2eb-20e5-4647-92f6-80b1753b6eaa</div></td></tr><tr><td style="font-weight:bold;vertical-align:top;">session_id_name</td><td style="vertical-align:top;">:</td><td><div>session_id_wm</div></td></tr><tr><td style="font-weight:bold;vertical-align:top;">session_locked</td><td style="vertical-align:top;">:</td><td><div>True</div></td></tr><tr><td style="font-weight:bold;vertical-align:top;">session_masterapp</td><td style="vertical-align:top;">:</td><td><div>wm</div></td></tr><tr><td style="font-weight:bold;vertical-align:top;">session_new</td><td style="vertical-align:top;">:</td><td><div>False</div></td></tr><tr><td style="font-weight:bold;vertical-align:top;">session_storage_type</td><td style="vertical-align:top;">:</td><td><div>file</div></td></tr><tr><td style="font-weight:bold;vertical-align:top;">status</td><td style="vertical-align:top;">:</td><td><div>200</div></td></tr><tr><td style="font-weight:bold;vertical-align:top;">subtitle</td><td style="vertical-align:top;">:</td><td><div>Really Great Apartments</div></td></tr><tr><td style="font-weight:bold;vertical-align:top;">title</td><td style="vertical-align:top;">:</td><td><div>Windsor Manor</div></td></tr><tr><td style="font-weight:bold;vertical-align:top;">view</td><td style="vertical-align:top;">:</td><td><div>default/getAvailables.html</div></td></tr></table></div>'
tRp261
sS'locals'
p262
(dp263
S'tables'
p264
S'<bound method SQLiteAdapter.tables of <gluon.dal.SQLiteAdapter object>>'
p265
sS'tablenames_for_common_filters'
p266
S'[]'
p267
sS'fields'
p268
S'[False]'
p269
sS'self'
p270
S'<gluon.dal.SQLiteAdapter object>'
p271
sS'field'
p272
S'False'
p273
sS'tablenames'
p274
S'[]'
p275
sS'attributes'
p276
g21
sS'query'
p277
S'None'
p278
sS'args_get'
p279
S'<built-in method get of dict object>'
p280
sssS'traceback'
p281
S'Traceback (most recent call last):\n  File "/home/chad/web2py/gluon/restricted.py", line 220, in restricted\n    exec ccode in environment\n  File "/home/chad/web2py/applications/wm/controllers/default.py", line 267, in <module>\n  File "/home/chad/web2py/gluon/globals.py", line 385, in <lambda>\n    self._caller = lambda f: f()\n  File "/home/chad/web2py/applications/wm/controllers/default.py", line 247, in getAvailables\n    return db().select(db.t_building.ALL == request.vars.gender);\n  File "/home/chad/web2py/gluon/dal.py", line 10525, in select\n    return adapter.select(self.query,fields,attributes)\n  File "/home/chad/web2py/gluon/dal.py", line 2458, in select\n    return super(SQLiteAdapter, self).select(query, fields, attributes)\n  File "/home/chad/web2py/gluon/dal.py", line 1869, in select\n    sql = self._select(query, fields, attributes)\n  File "/home/chad/web2py/gluon/dal.py", line 1708, in _select\n    raise SyntaxError(\'Set: no tables selected\')\nSyntaxError: Set: no tables selected\n'
p282
s.