(dp1
S'output'
p2
S"<type 'exceptions.SyntaxError'> keyed tables can only reference other keyed tables (for now)"
p3
sS'layer'
p4
S'/home/chad/web2py/applications/wm/models/db_wizard.py'
p5
sS'code'
p6
S"\n### we prepend t_ to tablenames and f_ to fieldnames for disambiguity\nfrom gluon.tools import Auth\nauth = Auth(db)\nauth.define_tables(username=False,signature=False)\n\n########################################\ndb.define_table('t_semester_name',\n    Field('f_semester_name', type='string',\n          label=T('Semester')),\n    auth.signature,\n    format='%(f_start_date)s',\n    migrate=settings.migrate)\n\ndb.define_table('t_semester_name_archive',db.t_semester_name,Field('current_record','reference t_semester_name',readable=False,writable=False))\n\n########################################\ndb.define_table('t_semester',\n    Field('f_start_date', type='date',\n          label=T('Start Date')),\n    Field('f_end_date', type='date',\n          label=T('End Date')),\n\tField('f_semester_name', type='references t_semester_name',\n          label=T('Semester')),\n    auth.signature,\n    format='%(f_start_date)s',\n    migrate=settings.migrate)\n\ndb.define_table('t_semester_archive',db.t_semester,Field('current_record','reference t_semester',readable=False,writable=False))\n\n########################################\ndb.define_table('t_request_comments',\n    Field('f_comments', type='string',\n          label=T('Comments'),notnull=True),\n    auth.signature,\n    format='%(f_comments)s',\n    migrate=settings.migrate)\n\ndb.define_table('t_request_comments_archive',db.t_request_comments,Field('current_record','reference t_request_comments',readable=False,writable=False))\n\n########################################\ndb.define_table('t_apartment_type',\n    Field('f_apartment_type', type='string',\n          label=T('Apartment Type')),\n    auth.signature,\n    format='%(f_apartment_type)s',\n    migrate=settings.migrate)\n\ndb.define_table('t_apartment_type_archive',db.t_apartment_type,Field('current_record','reference t_apartment_type',readable=False,writable=False))\n\n\n########################################\ndb.define_table('t_building',\n    Field('f_building_number', type='string',\n          label=T('Building Number')),\n    Field('f_building_type', type='string',\n          label=T('Building Type'),readable=False,writable=False),\n    auth.signature,\n    format='%(f_building_name)s',\n    migrate=settings.migrate)\n\ndb.define_table('t_building_archive',db.t_building,Field('current_record','reference t_building',readable=False,writable=False))\n\n########################################\ndb.define_table('t_floor',\n    Field('f_building', db.t_building.f_building_number,\n          label=T('Building Number')),\n    Field('f_floor_number', type='string',\n          label=T('Floor Number')),\n    auth.signature,\n    format='%(f_building_id)s',\n    migrate=settings.migrate)\n\n#db.t_floor.f_building.requires=IS_IN_DB(db, db.t_building,lambda row: '%s' % row.f_building_number)\n#db.t_floor.f_floor_number.requires=IS_IN_SET(('1','2','3', '4'))\n\ndb.define_table('t_floor_archive',db.t_floor,Field('current_record','reference t_floor',readable=False,writable=False))\n\n########################################\ndb.define_table('t_apartment',\n\tField('f_building_number', type='references t_building',\n          label=T('Building Number')),\n    Field('f_floor_number', type='references t_floor',\n          label=T('Floor Number')),\n    Field('f_apartment_type', type='references t_apartment_type',\n          label=T('Capacity')),\n    Field('f_apartment_number', type='string',\n          label=T('Apartment Number')),\n    auth.signature,\n    format='%(f_floor_id)s',\n    migrate=settings.migrate)\n\ndb.define_table('t_apartment_archive',db.t_apartment,Field('current_record','reference t_apartment',readable=False,writable=False))\n\n########################################\ndb.define_table('t_contract',\n    Field('f_user_id', type='references auth_user',\n          label=T('User Id'),notnull=True),\n    Field('f_apartment_number', type='references t_apartment',\n          label=T('Apartment Number'),notnull=True),\n    Field('f_semester_id', type='references t_semester',\n          label=T('Semester'),notnull=True),\n    Field('f_active', type='boolean',\n          label=T('Active'),notnull=True),\n    auth.signature,\n    format='%(f_user_id)s',\n    migrate=settings.migrate)\n\ndb.define_table('t_contract_archive',db.t_contract,Field('current_record','reference t_contract',readable=False,writable=False))\n\n########################################\ndb.define_table('t_parking',\n    Field('f_user_id', type='references auth_user',\n          label=T('User Id')),\n    Field('f_stall_number', type='string',\n          label=T('Stall Number')),\n    Field('f_car_make', type='string',\n          label=T('Car Make')),\n    Field('f_car_model', type='string',\n          label=T('Car Model')),\n    Field('f_license_plate_number', type='string',\n          label=T('License Plate Number')),\n    auth.signature,\n    format='%(f_user_id)s',\n    migrate=settings.migrate)\n\ndb.define_table('t_parking_archive',db.t_parking,Field('current_record','reference t_parking',readable=False,writable=False))\n\n########################################\ndb.define_table('t_room_type',\n    Field('f_type', type='string',\n          label=T('Room Type')),\n    Field('f_details', type='string',\n          label=T('Details')),\n    auth.signature,\n    format='%(f_type)s',\n    migrate=settings.migrate)\n\ndb.define_table('t_room_type_archive',db.t_room_type,Field('current_record','reference t_room_type',readable=False,writable=False))\n\n########################################\ndb.define_table('t_request_type',\n    Field('f_type', type='string',\n          label=T('Type')),\n    Field('f_details', type='string',\n          label=T('Details')),\n    auth.signature,\n    format='%(f_type)s',\n    migrate=settings.migrate)\n\ndb.define_table('t_request_type_archive',db.t_request_type,Field('current_record','reference t_request_type',readable=False,writable=False))\n\n\n\n\n########################################\ndb.define_table('t_request',\n    Field('f_user_id', type='string',\n          label=T('User Id')),\n    Field('f_request_type_id', type='references t_request_type',\n          label=T('Request Type Id')),\n    Field('f_request_comments_id', type='references t_request_comments',\n          label=T('Request Comments Id')),\n    Field('f_location', type='string',\n          label=T('Location')),\n    Field('f_details', type='string',\n          label=T('Details')),\n    Field('f_status', type='string',\n          label=T('Status')),\n    auth.signature,\n    format='%(f_user_id)s',\n    migrate=settings.migrate)\n\ndb.define_table('t_request_archive',db.t_request,Field('current_record','reference t_request',readable=False,writable=False))\n\n\n\n########################################\ndb.define_table('t_room',\n    Field('f_room_type_id', type='references t_room_type',\n          label=T('Room Type')),\n    Field('f_apartment_id', type='references t_apartment',\n          label=T('Apartment Number'),readable=False,writable=False),\n    auth.signature,\n    format='%(f_room_type_id)s',\n    migrate=settings.migrate)\n\ndb.define_table('t_room_archive',db.t_room,Field('current_record','reference t_room',readable=False,writable=False))\n\n\n########################################\ndb.define_table('t_user_info',\n    Field('f_firstname', type='string',\n          label=T('First Name')),\n    Field('f_middlename', type='string',\n          label=T('Middle Name')),\n\tField('f_lastname', type='string',\n          label=T('Last Name')),\n    Field('f_phone', type='string',\n          label=T('Phone')),\n    Field('f_address1', type='string',\n          label=T('Address1')),\n    Field('f_address2', type='string',\n          label=T('Address2')),\n    Field('f_city', type='string',\n          label=T('City')),\n    Field('f_state', type='string',\n          label=T('State')),\n    Field('f_zip', type='string',\n          label=T('Zip')),\n    Field('f_country', type='string',\n          label=T('Country')),\n    Field('f_gender', type='string',\n          label=T('Gender')),\n    auth.signature,\n    format='%(f_phone)s',\n    migrate=settings.migrate)\n\ndb.define_table('t_user_info_archive',db.t_user_info,Field('current_record','reference t_user_info',readable=False,writable=False))\n"
p7
sS'snapshot'
p8
(dp9
S'exception'
p10
(dp11
S'__getslice__'
p12
S"<method-wrapper '__getslice__' of exceptions.SyntaxError object>"
p13
sS'text'
p14
S'None'
p15
sS'__str__'
p16
S"<method-wrapper '__str__' of exceptions.SyntaxError object>"
p17
sS'__reduce__'
p18
S'<built-in method __reduce__ of exceptions.SyntaxError object>'
p19
sS'__dict__'
p20
S'{}'
p21
sS'__sizeof__'
p22
S'<built-in method __sizeof__ of exceptions.SyntaxError object>'
p23
sS'__init__'
p24
S"<method-wrapper '__init__' of exceptions.SyntaxError object>"
p25
sS'__setattr__'
p26
S"<method-wrapper '__setattr__' of exceptions.SyntaxError object>"
p27
sS'__reduce_ex__'
p28
S'<built-in method __reduce_ex__ of exceptions.SyntaxError object>'
p29
sS'__new__'
p30
S'<built-in method __new__ of type object>'
p31
sS'__format__'
p32
S'<built-in method __format__ of exceptions.SyntaxError object>'
p33
sS'__class__'
p34
S"<type 'exceptions.SyntaxError'>"
p35
sS'filename'
p36
S'None'
p37
sS'lineno'
p38
S'None'
p39
sS'msg'
p40
S"'keyed tables can only reference other keyed tables (for now)'"
p41
sS'__doc__'
p42
S"'Invalid syntax.'"
p43
sS'__getitem__'
p44
S"<method-wrapper '__getitem__' of exceptions.SyntaxError object>"
p45
sS'__setstate__'
p46
S'<built-in method __setstate__ of exceptions.SyntaxError object>'
p47
sS'__getattribute__'
p48
S"<method-wrapper '__getattribute__' of exceptions.SyntaxError object>"
p49
sS'print_file_and_line'
p50
S'None'
p51
sS'args'
p52
S"('keyed tables can only reference other keyed tables (for now)',)"
p53
sS'__subclasshook__'
p54
S'<built-in method __subclasshook__ of type object>'
p55
sS'offset'
p56
S'None'
p57
sS'__unicode__'
p58
S'<built-in method __unicode__ of exceptions.SyntaxError object>'
p59
sS'__delattr__'
p60
S"<method-wrapper '__delattr__' of exceptions.SyntaxError object>"
p61
sS'__repr__'
p62
S"<method-wrapper '__repr__' of exceptions.SyntaxError object>"
p63
sS'__hash__'
p64
S"<method-wrapper '__hash__' of exceptions.SyntaxError object>"
p65
ssS'evalue'
p66
S'keyed tables can only reference other keyed tables (for now)'
p67
sS'request'
p68
cgluon.html
XML_unpickle
p69
(S's\x03Z\x00\x00<div><table><tr><td style="font-weight:bold;vertical-align:top;">ajax</td><td style="vertical-align:top;">:</td><td><div>False</div></td></tr><tr><td style="font-weight:bold;vertical-align:top;">application</td><td style="vertical-align:top;">:</td><td><div>wm</div></td></tr><tr><td style="font-weight:bold;vertical-align:top;">args</td><td style="vertical-align:top;">:</td><td><div><table></table></div></td></tr><tr><td style="font-weight:bold;vertical-align:top;">cid</td><td style="vertical-align:top;">:</td><td><div>None</div></td></tr><tr><td style="font-weight:bold;vertical-align:top;">client</td><td style="vertical-align:top;">:</td><td><div>127.0.0.1</div></td></tr><tr><td style="font-weight:bold;vertical-align:top;">controller</td><td style="vertical-align:top;">:</td><td><div>appadmin</div></td></tr><tr><td style="font-weight:bold;vertical-align:top;">cookies</td><td style="vertical-align:top;">:</td><td><div><table><tr><td style="font-weight:bold;vertical-align:top;">session_id_admin</td><td style="vertical-align:top;">:</td><td><div>127.0.0.1-9dee61ba-2d17-4586-a191-974cf4e9c8a2<table><tr><td style="font-weight:bold;vertical-align:top;">comment</td><td style="vertical-align:top;">:</td><td><div></div></td></tr><tr><td style="font-weight:bold;vertical-align:top;">domain</td><td style="vertical-align:top;">:</td><td><div></div></td></tr><tr><td style="font-weight:bold;vertical-align:top;">expires</td><td style="vertical-align:top;">:</td><td><div></div></td></tr><tr><td style="font-weight:bold;vertical-align:top;">httponly</td><td style="vertical-align:top;">:</td><td><div></div></td></tr><tr><td style="font-weight:bold;vertical-align:top;">max-age</td><td style="vertical-align:top;">:</td><td><div></div></td></tr><tr><td style="font-weight:bold;vertical-align:top;">path</td><td style="vertical-align:top;">:</td><td><div></div></td></tr><tr><td style="font-weight:bold;vertical-align:top;">secure</td><td style="vertical-align:top;">:</td><td><div></div></td></tr><tr><td style="font-weight:bold;vertical-align:top;">version</td><td style="vertical-align:top;">:</td><td><div></div></td></tr></table></div></td></tr><tr><td style="font-weight:bold;vertical-align:top;">session_id_welcome</td><td style="vertical-align:top;">:</td><td><div>127.0.0.1-8f18f354-acc4-4436-83f6-ca1627eb2385<table><tr><td style="font-weight:bold;vertical-align:top;">comment</td><td style="vertical-align:top;">:</td><td><div></div></td></tr><tr><td style="font-weight:bold;vertical-align:top;">domain</td><td style="vertical-align:top;">:</td><td><div></div></td></tr><tr><td style="font-weight:bold;vertical-align:top;">expires</td><td style="vertical-align:top;">:</td><td><div></div></td></tr><tr><td style="font-weight:bold;vertical-align:top;">httponly</td><td style="vertical-align:top;">:</td><td><div></div></td></tr><tr><td style="font-weight:bold;vertical-align:top;">max-age</td><td style="vertical-align:top;">:</td><td><div></div></td></tr><tr><td style="font-weight:bold;vertical-align:top;">path</td><td style="vertical-align:top;">:</td><td><div></div></td></tr><tr><td style="font-weight:bold;vertical-align:top;">secure</td><td style="vertical-align:top;">:</td><td><div></div></td></tr><tr><td style="font-weight:bold;vertical-align:top;">version</td><td style="vertical-align:top;">:</td><td><div></div></td></tr></table></div></td></tr><tr><td style="font-weight:bold;vertical-align:top;">session_id_wm</td><td style="vertical-align:top;">:</td><td><div>127.0.0.1-e7ace2eb-20e5-4647-92f6-80b1753b6eaa<table><tr><td style="font-weight:bold;vertical-align:top;">comment</td><td style="vertical-align:top;">:</td><td><div></div></td></tr><tr><td style="font-weight:bold;vertical-align:top;">domain</td><td style="vertical-align:top;">:</td><td><div></div></td></tr><tr><td style="font-weight:bold;vertical-align:top;">expires</td><td style="vertical-align:top;">:</td><td><div></div></td></tr><tr><td style="font-weight:bold;vertical-align:top;">httponly</td><td style="vertical-align:top;">:</td><td><div></div></td></tr><tr><td style="font-weight:bold;vertical-align:top;">max-age</td><td style="vertical-align:top;">:</td><td><div></div></td></tr><tr><td style="font-weight:bold;vertical-align:top;">path</td><td style="vertical-align:top;">:</td><td><div></div></td></tr><tr><td style="font-weight:bold;vertical-align:top;">secure</td><td style="vertical-align:top;">:</td><td><div></div></td></tr><tr><td style="font-weight:bold;vertical-align:top;">version</td><td style="vertical-align:top;">:</td><td><div></div></td></tr></table></div></td></tr></table></div></td></tr><tr><td style="font-weight:bold;vertical-align:top;">env</td><td style="vertical-align:top;">:</td><td><div><table><tr><td style="font-weight:bold;vertical-align:top;">HTTP_ACCEPT</td><td style="vertical-align:top;">:</td><td><div>text/html,application/xhtml+xml,application/xml;q=0.9,*/*;q=0.8</div></td></tr><tr><td style="font-weight:bold;vertical-align:top;">HTTP_ACCEPT_ENCODING</td><td style="vertical-align:top;">:</td><td><div>gzip, deflate</div></td></tr><tr><td style="font-weight:bold;vertical-align:top;">HTTP_ACCEPT_LANGUAGE</td><td style="vertical-align:top;">:</td><td><div>en-US,en;q=0.5</div></td></tr><tr><td style="font-weight:bold;vertical-align:top;">HTTP_CACHE_CONTROL</td><td style="vertical-align:top;">:</td><td><div>max-age=0</div></td></tr><tr><td style="font-weight:bold;vertical-align:top;">HTTP_CONNECTION</td><td style="vertical-align:top;">:</td><td><div>keep-alive</div></td></tr><tr><td style="font-weight:bold;vertical-align:top;">HTTP_COOKIE</td><td style="vertical-align:top;">:</td><td><div>session_id_welcome=127.0.0.1-8f18f354-acc4-4436-83f6-ca1627eb2385; session_id_admin=127.0.0.1-9dee61ba-2d17-4586-a191-974cf4e9c8a2; session_id_wm=127.0.0.1-e7ace2eb-20e5-4647-92f6-80b1753b6eaa</div></td></tr><tr><td style="font-weight:bold;vertical-align:top;">HTTP_HOST</td><td style="vertical-align:top;">:</td><td><div>127.0.0.1:8000</div></td></tr><tr><td style="font-weight:bold;vertical-align:top;">HTTP_REFERER</td><td style="vertical-align:top;">:</td><td><div>http://127.0.0.1:8000/admin/default/design/wm</div></td></tr><tr><td style="font-weight:bold;vertical-align:top;">HTTP_USER_AGENT</td><td style="vertical-align:top;">:</td><td><div>Mozilla/5.0 (X11; Ubuntu; Linux x86_64; rv:30.0) Gecko/20100101 Firefox/30.0</div></td></tr><tr><td style="font-weight:bold;vertical-align:top;">PATH_INFO</td><td style="vertical-align:top;">:</td><td><div>/wm/appadmin/index</div></td></tr><tr><td style="font-weight:bold;vertical-align:top;">QUERY_STRING</td><td style="vertical-align:top;">:</td><td><div></div></td></tr><tr><td style="font-weight:bold;vertical-align:top;">REMOTE_ADDR</td><td style="vertical-align:top;">:</td><td><div>127.0.0.1</div></td></tr><tr><td style="font-weight:bold;vertical-align:top;">REMOTE_PORT</td><td style="vertical-align:top;">:</td><td><div>55458</div></td></tr><tr><td style="font-weight:bold;vertical-align:top;">REQUEST_METHOD</td><td style="vertical-align:top;">:</td><td><div>GET</div></td></tr><tr><td style="font-weight:bold;vertical-align:top;">SCRIPT_NAME</td><td style="vertical-align:top;">:</td><td><div></div></td></tr><tr><td style="font-weight:bold;vertical-align:top;">SERVER_NAME</td><td style="vertical-align:top;">:</td><td><div>Link</div></td></tr><tr><td style="font-weight:bold;vertical-align:top;">SERVER_PORT</td><td style="vertical-align:top;">:</td><td><div>8000</div></td></tr><tr><td style="font-weight:bold;vertical-align:top;">SERVER_PROTOCOL</td><td style="vertical-align:top;">:</td><td><div>HTTP/1.1</div></td></tr><tr><td style="font-weight:bold;vertical-align:top;">SERVER_SOFTWARE</td><td style="vertical-align:top;">:</td><td><div>Rocket 1.2.6</div></td></tr><tr><td style="font-weight:bold;vertical-align:top;">app_folders</td><td style="vertical-align:top;">:</td><td><div>set([&#x27;/home/chad/web2py/applications/wm/&#x27;, &#x27;/home/chad/web2py/applications/admin/&#x27;, &#x27;/home/chad/web2py/applications/welcome/&#x27;])</div></td></tr><tr><td style="font-weight:bold;vertical-align:top;">applications_parent</td><td style="vertical-align:top;">:</td><td><div>/home/chad/web2py</div></td></tr><tr><td style="font-weight:bold;vertical-align:top;">cmd_args</td><td style="vertical-align:top;">:</td><td><div><table></table></div></td></tr><tr><td style="font-weight:bold;vertical-align:top;">cmd_options</td><td style="vertical-align:top;">:</td><td><div>&lt;Values at 0x2401710: {&#x27;verbose&#x27;: False, &#x27;ip&#x27;: &#x27;127.0.0.1&#x27;, &#x27;debuglevel&#x27;: 30, &#x27;with_scheduler&#x27;: False, &#x27;ips&#x27;: [&#x27;127.0.1.1&#x27;], &#x27;shutdown_timeout&#x27;: 5, &#x27;taskbar&#x27;: False, &#x27;with_coverage&#x27;: False, &#x27;port&#x27;: 8000, &#x27;maxthreads&#x27;: None, &#x27;softcron&#x27;: False, &#x27;server_name&#x27;: &#x27;Link&#x27;, &#x27;bpython&#x27;: False, &#x27;nogui&#x27;: False, &#x27;pid_filename&#x27;: &#x27;httpserver.pid&#x27;, &#x27;extcron&#x27;: False, &#x27;runcron&#x27;: False, &#x27;run_system_tests&#x27;: False, &#x27;test&#x27;: None, &#x27;folder&#x27;: &#x27;/home/chad/web2py&#x27;, &#x27;config&#x27;: &#x27;&#x27;, &#x27;minthreads&#x27;: None, &#x27;shell&#x27;: None, &#x27;run&#x27;: &#x27;&#x27;, &#x27;log_filename&#x27;: &#x27;httpserver.log&#x27;, &#x27;profiler_dir&#x27;: None, &#x27;args&#x27;: [&#x27;&#x27;], &#x27;socket_timeout&#x27;: 5, &#x27;ssl_ca_certificate&#x27;: None, &#x27;scheduler&#x27;: None, &#x27;interfaces&#x27;: None, &#x27;ssl_private_key&#x27;: &#x27;&#x27;, &#x27;scheduler_groups&#x27;: None, &#x27;password&#x27;: &#x27;&lt;ask&gt;&#x27;, &#x27;request_queue_size&#x27;: 5, &#x27;ssl_certificate&#x27;: &#x27;&#x27;, &#x27;cronjob&#x27;: False, &#x27;numthreads&#x27;: None, &#x27;quiet&#x27;: False, &#x27;import_models&#x27;: False, &#x27;timeout&#x27;: 10, &#x27;plain&#x27;: False, &#x27;nobanner&#x27;: False}&gt;</div></td></tr><tr><td style="font-weight:bold;vertical-align:top;">db_sessions</td><td style="vertical-align:top;">:</td><td><div>set([])</div></td></tr><tr><td style="font-weight:bold;vertical-align:top;">debugging</td><td style="vertical-align:top;">:</td><td><div>False</div></td></tr><tr><td style="font-weight:bold;vertical-align:top;">gluon_parent</td><td style="vertical-align:top;">:</td><td><div>/home/chad/web2py</div></td></tr><tr><td style="font-weight:bold;vertical-align:top;">http_accept</td><td style="vertical-align:top;">:</td><td><div>text/html,application/xhtml+xml,application/xml;q=0.9,*/*;q=0.8</div></td></tr><tr><td style="font-weight:bold;vertical-align:top;">http_accept_encoding</td><td style="vertical-align:top;">:</td><td><div>gzip, deflate</div></td></tr><tr><td style="font-weight:bold;vertical-align:top;">http_accept_language</td><td style="vertical-align:top;">:</td><td><div>en-US,en;q=0.5</div></td></tr><tr><td style="font-weight:bold;vertical-align:top;">http_cache_control</td><td style="vertical-align:top;">:</td><td><div>max-age=0</div></td></tr><tr><td style="font-weight:bold;vertical-align:top;">http_connection</td><td style="vertical-align:top;">:</td><td><div>keep-alive</div></td></tr><tr><td style="font-weight:bold;vertical-align:top;">http_cookie</td><td style="vertical-align:top;">:</td><td><div>session_id_welcome=127.0.0.1-8f18f354-acc4-4436-83f6-ca1627eb2385; session_id_admin=127.0.0.1-9dee61ba-2d17-4586-a191-974cf4e9c8a2; session_id_wm=127.0.0.1-e7ace2eb-20e5-4647-92f6-80b1753b6eaa</div></td></tr><tr><td style="font-weight:bold;vertical-align:top;">http_host</td><td style="vertical-align:top;">:</td><td><div>127.0.0.1:8000</div></td></tr><tr><td style="font-weight:bold;vertical-align:top;">http_referer</td><td style="vertical-align:top;">:</td><td><div>http://127.0.0.1:8000/admin/default/design/wm</div></td></tr><tr><td style="font-weight:bold;vertical-align:top;">http_user_agent</td><td style="vertical-align:top;">:</td><td><div>Mozilla/5.0 (X11; Ubuntu; Linux x86_64; rv:30.0) Gecko/20100101 Firefox/30.0</div></td></tr><tr><td style="font-weight:bold;vertical-align:top;">is_jython</td><td style="vertical-align:top;">:</td><td><div>False</div></td></tr><tr><td style="font-weight:bold;vertical-align:top;">is_pypy</td><td style="vertical-align:top;">:</td><td><div>False</div></td></tr><tr><td style="font-weight:bold;vertical-align:top;">is_source</td><td style="vertical-align:top;">:</td><td><div>True</div></td></tr><tr><td style="font-weight:bold;vertical-align:top;">local_hosts</td><td style="vertical-align:top;">:</td><td><div><table><tr><td><div>::1</div></td></tr><tr><td><div>127.0.1.1</div></td></tr><tr><td><div>Link</div></td></tr><tr><td><div>::ffff:127.0.0.1</div></td></tr><tr><td><div>127.0.0.1</div></td></tr></table></div></td></tr><tr><td style="font-weight:bold;vertical-align:top;">path_info</td><td style="vertical-align:top;">:</td><td><div>/wm/appadmin/index</div></td></tr><tr><td style="font-weight:bold;vertical-align:top;">query_string</td><td style="vertical-align:top;">:</td><td><div></div></td></tr><tr><td style="font-weight:bold;vertical-align:top;">remote_addr</td><td style="vertical-align:top;">:</td><td><div>127.0.0.1</div></td></tr><tr><td style="font-weight:bold;vertical-align:top;">remote_port</td><td style="vertical-align:top;">:</td><td><div>55458</div></td></tr><tr><td style="font-weight:bold;vertical-align:top;">request_method</td><td style="vertical-align:top;">:</td><td><div>GET</div></td></tr><tr><td style="font-weight:bold;vertical-align:top;">request_uri</td><td style="vertical-align:top;">:</td><td><div>/wm/appadmin/index</div></td></tr><tr><td style="font-weight:bold;vertical-align:top;">script_name</td><td style="vertical-align:top;">:</td><td><div></div></td></tr><tr><td style="font-weight:bold;vertical-align:top;">server_name</td><td style="vertical-align:top;">:</td><td><div>Link</div></td></tr><tr><td style="font-weight:bold;vertical-align:top;">server_port</td><td style="vertical-align:top;">:</td><td><div>8000</div></td></tr><tr><td style="font-weight:bold;vertical-align:top;">server_protocol</td><td style="vertical-align:top;">:</td><td><div>HTTP/1.1</div></td></tr><tr><td style="font-weight:bold;vertical-align:top;">server_software</td><td style="vertical-align:top;">:</td><td><div>Rocket 1.2.6</div></td></tr><tr><td style="font-weight:bold;vertical-align:top;">web2py_path</td><td style="vertical-align:top;">:</td><td><div>/home/chad/web2py</div></td></tr><tr><td style="font-weight:bold;vertical-align:top;">web2py_version</td><td style="vertical-align:top;">:</td><td><div>2.9.5-stable+timestamp.2014.03.16.02.35.39</div></td></tr><tr><td style="font-weight:bold;vertical-align:top;">wsgi.errors</td><td style="vertical-align:top;">:</td><td><div>&lt;open file &#x27;&lt;stderr&gt;&#x27;, mode &#x27;w&#x27; at 0x7fd14f4db270&gt;</div></td></tr><tr><td style="font-weight:bold;vertical-align:top;">wsgi.file_wrapper</td><td style="vertical-align:top;">:</td><td><div>&lt;class wsgiref.util.FileWrapper at 0x236ee20&gt;</div></td></tr><tr><td style="font-weight:bold;vertical-align:top;">wsgi.input</td><td style="vertical-align:top;">:</td><td><div>&lt;socket._fileobject object at 0x7fd1301d7850&gt;</div></td></tr><tr><td style="font-weight:bold;vertical-align:top;">wsgi.multiprocess</td><td style="vertical-align:top;">:</td><td><div>False</div></td></tr><tr><td style="font-weight:bold;vertical-align:top;">wsgi.multithread</td><td style="vertical-align:top;">:</td><td><div>True</div></td></tr><tr><td style="font-weight:bold;vertical-align:top;">wsgi.run_once</td><td style="vertical-align:top;">:</td><td><div>False</div></td></tr><tr><td style="font-weight:bold;vertical-align:top;">wsgi.url_scheme</td><td style="vertical-align:top;">:</td><td><div>http</div></td></tr><tr><td style="font-weight:bold;vertical-align:top;">wsgi.version</td><td style="vertical-align:top;">:</td><td><div><table><tr><td><div>1</div></td></tr><tr><td><div>0</div></td></tr></table></div></td></tr><tr><td style="font-weight:bold;vertical-align:top;">wsgi_errors</td><td style="vertical-align:top;">:</td><td><div>&lt;open file &#x27;&lt;stderr&gt;&#x27;, mode &#x27;w&#x27; at 0x7fd14f4db270&gt;</div></td></tr><tr><td style="font-weight:bold;vertical-align:top;">wsgi_file_wrapper</td><td style="vertical-align:top;">:</td><td><div>&lt;class wsgiref.util.FileWrapper at 0x236ee20&gt;</div></td></tr><tr><td style="font-weight:bold;vertical-align:top;">wsgi_input</td><td style="vertical-align:top;">:</td><td><div>&lt;socket._fileobject object at 0x7fd1301d7850&gt;</div></td></tr><tr><td style="font-weight:bold;vertical-align:top;">wsgi_multiprocess</td><td style="vertical-align:top;">:</td><td><div>False</div></td></tr><tr><td style="font-weight:bold;vertical-align:top;">wsgi_multithread</td><td style="vertical-align:top;">:</td><td><div>True</div></td></tr><tr><td style="font-weight:bold;vertical-align:top;">wsgi_run_once</td><td style="vertical-align:top;">:</td><td><div>False</div></td></tr><tr><td style="font-weight:bold;vertical-align:top;">wsgi_url_scheme</td><td style="vertical-align:top;">:</td><td><div>http</div></td></tr><tr><td style="font-weight:bold;vertical-align:top;">wsgi_version</td><td style="vertical-align:top;">:</td><td><div><table><tr><td><div>1</div></td></tr><tr><td><div>0</div></td></tr></table></div></td></tr></table></div></td></tr><tr><td style="font-weight:bold;vertical-align:top;">extension</td><td style="vertical-align:top;">:</td><td><div>html</div></td></tr><tr><td style="font-weight:bold;vertical-align:top;">folder</td><td style="vertical-align:top;">:</td><td><div>/home/chad/web2py/applications/wm/</div></td></tr><tr><td style="font-weight:bold;vertical-align:top;">function</td><td style="vertical-align:top;">:</td><td><div>index</div></td></tr><tr><td style="font-weight:bold;vertical-align:top;">global_settings</td><td style="vertical-align:top;">:</td><td><div><table><tr><td style="font-weight:bold;vertical-align:top;">app_folders</td><td style="vertical-align:top;">:</td><td><div>set([&#x27;/home/chad/web2py/applications/wm/&#x27;, &#x27;/home/chad/web2py/applications/admin/&#x27;, &#x27;/home/chad/web2py/applications/welcome/&#x27;])</div></td></tr><tr><td style="font-weight:bold;vertical-align:top;">applications_parent</td><td style="vertical-align:top;">:</td><td><div>/home/chad/web2py</div></td></tr><tr><td style="font-weight:bold;vertical-align:top;">cmd_args</td><td style="vertical-align:top;">:</td><td><div><table></table></div></td></tr><tr><td style="font-weight:bold;vertical-align:top;">cmd_options</td><td style="vertical-align:top;">:</td><td><div>&lt;Values at 0x2401710: {&#x27;verbose&#x27;: False, &#x27;ip&#x27;: &#x27;127.0.0.1&#x27;, &#x27;debuglevel&#x27;: 30, &#x27;with_scheduler&#x27;: False, &#x27;ips&#x27;: [&#x27;127.0.1.1&#x27;], &#x27;shutdown_timeout&#x27;: 5, &#x27;taskbar&#x27;: False, &#x27;with_coverage&#x27;: False, &#x27;port&#x27;: 8000, &#x27;maxthreads&#x27;: None, &#x27;softcron&#x27;: False, &#x27;server_name&#x27;: &#x27;Link&#x27;, &#x27;bpython&#x27;: False, &#x27;nogui&#x27;: False, &#x27;pid_filename&#x27;: &#x27;httpserver.pid&#x27;, &#x27;extcron&#x27;: False, &#x27;runcron&#x27;: False, &#x27;run_system_tests&#x27;: False, &#x27;test&#x27;: None, &#x27;folder&#x27;: &#x27;/home/chad/web2py&#x27;, &#x27;config&#x27;: &#x27;&#x27;, &#x27;minthreads&#x27;: None, &#x27;shell&#x27;: None, &#x27;run&#x27;: &#x27;&#x27;, &#x27;log_filename&#x27;: &#x27;httpserver.log&#x27;, &#x27;profiler_dir&#x27;: None, &#x27;args&#x27;: [&#x27;&#x27;], &#x27;socket_timeout&#x27;: 5, &#x27;ssl_ca_certificate&#x27;: None, &#x27;scheduler&#x27;: None, &#x27;interfaces&#x27;: None, &#x27;ssl_private_key&#x27;: &#x27;&#x27;, &#x27;scheduler_groups&#x27;: None, &#x27;password&#x27;: &#x27;&lt;ask&gt;&#x27;, &#x27;request_queue_size&#x27;: 5, &#x27;ssl_certificate&#x27;: &#x27;&#x27;, &#x27;cronjob&#x27;: False, &#x27;numthreads&#x27;: None, &#x27;quiet&#x27;: False, &#x27;import_models&#x27;: False, &#x27;timeout&#x27;: 10, &#x27;plain&#x27;: False, &#x27;nobanner&#x27;: False}&gt;</div></td></tr><tr><td style="font-weight:bold;vertical-align:top;">db_sessions</td><td style="vertical-align:top;">:</td><td><div>set([])</div></td></tr><tr><td style="font-weight:bold;vertical-align:top;">debugging</td><td style="vertical-align:top;">:</td><td><div>False</div></td></tr><tr><td style="font-weight:bold;vertical-align:top;">gluon_parent</td><td style="vertical-align:top;">:</td><td><div>/home/chad/web2py</div></td></tr><tr><td style="font-weight:bold;vertical-align:top;">is_jython</td><td style="vertical-align:top;">:</td><td><div>False</div></td></tr><tr><td style="font-weight:bold;vertical-align:top;">is_pypy</td><td style="vertical-align:top;">:</td><td><div>False</div></td></tr><tr><td style="font-weight:bold;vertical-align:top;">is_source</td><td style="vertical-align:top;">:</td><td><div>True</div></td></tr><tr><td style="font-weight:bold;vertical-align:top;">local_hosts</td><td style="vertical-align:top;">:</td><td><div><table><tr><td><div>::1</div></td></tr><tr><td><div>127.0.1.1</div></td></tr><tr><td><div>Link</div></td></tr><tr><td><div>::ffff:127.0.0.1</div></td></tr><tr><td><div>127.0.0.1</div></td></tr></table></div></td></tr><tr><td style="font-weight:bold;vertical-align:top;">web2py_version</td><td style="vertical-align:top;">:</td><td><div>2.9.5-stable+timestamp.2014.03.16.02.35.39</div></td></tr></table></div></td></tr><tr><td style="font-weight:bold;vertical-align:top;">is_https</td><td style="vertical-align:top;">:</td><td><div>False</div></td></tr><tr><td style="font-weight:bold;vertical-align:top;">is_local</td><td style="vertical-align:top;">:</td><td><div>True</div></td></tr><tr><td style="font-weight:bold;vertical-align:top;">is_restful</td><td style="vertical-align:top;">:</td><td><div>False</div></td></tr><tr><td style="font-weight:bold;vertical-align:top;">now</td><td style="vertical-align:top;">:</td><td><div>datetime.datetime(2014, 7, 12, 10, 41, 37, 193770)</div></td></tr><tr><td style="font-weight:bold;vertical-align:top;">raw_args</td><td style="vertical-align:top;">:</td><td><div></div></td></tr><tr><td style="font-weight:bold;vertical-align:top;">raw_extension</td><td style="vertical-align:top;">:</td><td><div>None</div></td></tr><tr><td style="font-weight:bold;vertical-align:top;">url</td><td style="vertical-align:top;">:</td><td><div>/wm/appadmin/index</div></td></tr><tr><td style="font-weight:bold;vertical-align:top;">utcnow</td><td style="vertical-align:top;">:</td><td><div>datetime.datetime(2014, 7, 12, 16, 41, 37, 193808)</div></td></tr><tr><td style="font-weight:bold;vertical-align:top;">uuid</td><td style="vertical-align:top;">:</td><td><div>wm/127.0.0.1.2014-07-12.10-41-37.9dcfcf51-c2b0-4553-aad0-f127857ee5ee</div></td></tr><tr><td style="font-weight:bold;vertical-align:top;">wsgi</td><td style="vertical-align:top;">:</td><td><div>&lt;gluon.main.LazyWSGI object at 0x7fd110494ed0&gt;</div></td></tr></table></div>'
tRp70
sS'frames'
p71
(lp72
(dp73
S'file'
p74
S'/home/chad/web2py/gluon/restricted.py'
p75
sS'dump'
p76
(dp77
S'environment'
p78
S"{'A': <class 'gluon.html.A'>, 'ANY_OF': <class 'gluon.validators.ANY_OF'>, 'Admin': <module 'applications.wm.modules.Admin' from 'applications/wm/modules/Admin.pyc'>, 'Auth': <class 'gluon.tools.Auth'>, 'B': <class 'gluon.html.B'>, 'BEAUTIFY': <class 'gluon.html.BEAUTIFY'>, 'BODY': <class 'gluon.html.BODY'>, 'BR': <class 'gluon.html.BR'>, 'BUTTON': <class 'gluon.html.BUTTON'>, 'CAT': <class 'gluon.html.CAT'>, ...}"
p79
sS'ccode'
p80
S'<code object <module> at 0x7fd138096430, file "/...2py/applications/wm/models/db_wizard.py", line 3>'
p81
ssS'lnum'
p82
I220
sS'lines'
p83
(dp84
I224
S'        # do not encapsulate (obfuscate) the original RestrictedError'
p85
sI215
S'    try:'
p86
sI216
S'        if isinstance(code, types.CodeType):'
p87
sI217
S'            ccode = code'
p88
sI218
S'        else:'
p89
sI219
S'            ccode = compile2(code, layer)'
p90
sI220
S'        exec ccode in environment'
p91
sI221
S'    except HTTP:'
p92
sI222
S'        raise'
p93
sI223
S'    except RestrictedError:'
p94
ssS'call'
p95
S'(code="\\n### we prepend t_ to tablenames and f_ to field...nce t_user_info\',readable=False,writable=False))\\n", environment={\'A\': <class \'gluon.html.A\'>, \'ANY_OF\': <class \'gluon.validators.ANY_OF\'>, \'Admin\': <module \'applications.wm.modules.Admin\' from \'applications/wm/modules/Admin.pyc\'>, \'Auth\': <class \'gluon.tools.Auth\'>, \'B\': <class \'gluon.html.B\'>, \'BEAUTIFY\': <class \'gluon.html.BEAUTIFY\'>, \'BODY\': <class \'gluon.html.BODY\'>, \'BR\': <class \'gluon.html.BR\'>, \'BUTTON\': <class \'gluon.html.BUTTON\'>, \'CAT\': <class \'gluon.html.CAT\'>, ...}, layer=\'/home/chad/web2py/applications/wm/models/db_wizard.py\')'
p96
sS'func'
p97
S'restricted'
p98
sa(dp99
g74
S'/home/chad/web2py/applications/wm/models/db_wizard.py'
p100
sg76
(dp101
S'migrate'
p102
S'undefined'
p103
sS'settings.migrate'
p104
S'True'
p105
sS'settings'
p106
S"<Storage {'layout_theme': 'Default', 'subtitle':...l_server': 'localhost', 'login_method': 'local'}>"
p107
ssg82
I72
sg83
(dp108
I67
S"          label=T('Building Number')),"
p109
sI68
S"    Field('f_floor_number', type='string',"
p110
sI69
S"          label=T('Floor Number')),"
p111
sI70
S'    auth.signature,'
p112
sI71
S"    format='%(f_building_id)s',"
p113
sI72
S'    migrate=settings.migrate)'
p114
sI73
S''
sI74
S"#db.t_floor.f_building.requires=IS_IN_DB(db, db.t_building,lambda row: '%s' % row.f_building_number)"
p115
sI75
S"#db.t_floor.f_floor_number.requires=IS_IN_SET(('1','2','3', '4'))"
p116
sI76
S''
ssg95
S'()'
p117
sg97
S'<module>'
p118
sa(dp119
g74
S'/home/chad/web2py/gluon/dal.py'
p120
sg76
(dp121
S'fields'
p122
S'(<gluon.dal.Field object>, <gluon.dal.Field object>, <Table auth_signature (id,is_active,created_on,created_by,modified_on,modified_by)>)'
p123
sS'self'
p124
S'<DAL uri="sqlite://storage.sqlite">'
p125
sS'args'
p126
S"{'format': '%(f_building_id)s', 'migrate': True}"
p127
sS'tablename'
p128
S"'t_floor'"
p129
sS'table'
p130
g103
sS'self.lazy_define_table'
p131
S'<bound method DAL.lazy_define_table of <DAL uri="sqlite://storage.sqlite">>'
p132
ssg82
I8223
sg83
(dp133
I8224
S'        if not tablename in self.tables:'
p134
sI8225
S'            self.tables.append(tablename)'
p135
sI8226
S'        return table'
p136
sI8227
S''
sI8218
S'                    % (tablename,invalid_args))'
p137
sI8219
S'        if self._lazy_tables and not tablename in self._LAZY_TABLES:'
p138
sI8220
S'            self._LAZY_TABLES[tablename] = (tablename,fields,args)'
p139
sI8221
S'            table = None'
p140
sI8222
S'        else:'
p141
sI8223
S'            table = self.lazy_define_table(tablename,*fields,**args)'
p142
ssg95
S'(self=<DAL uri="sqlite://storage.sqlite">, tablename=\'t_floor\', *fields=(<gluon.dal.Field object>, <gluon.dal.Field object>, <Table auth_signature (id,is_active,created_on,created_by,modified_on,modified_by)>), **args={\'format\': \'%(f_building_id)s\', \'migrate\': True})'
p143
sg97
S'define_table'
p144
sa(dp145
g74
S'/home/chad/web2py/gluon/dal.py'
p146
sg76
(dp147
S'table'
p148
S'<Table t_floor (id,f_building,f_floor_number,is_...e,created_on,created_by,modified_on,modified_by)>'
p149
sS'table._create_references'
p150
S'<bound method Table._create_references of <Table...,created_on,created_by,modified_on,modified_by)>>'
p151
ssg82
I8244
sg83
(dp152
I8239
S"        table_class = args_get('table_class',Table)"
p153
sI8240
S'        table = table_class(self, tablename, *fields, **args)'
p154
sI8241
S'        table._actual = True'
p155
sI8242
S'        self[tablename] = table'
p156
sI8243
S'        # must follow above line to handle self references'
p157
sI8244
S'        table._create_references()'
p158
sI8245
S'        for field in table:'
p159
sI8246
S'            if field.requires == DEFAULT:'
p160
sI8247
S'                field.requires = sqlhtml_validators(field)'
p161
sI8248
S''
ssg95
S'(self=<DAL uri="sqlite://storage.sqlite">, tablename=\'t_floor\', *fields=(<gluon.dal.Field object>, <gluon.dal.Field object>, <Table auth_signature (id,is_active,created_on,created_by,modified_on,modified_by)>), **args={\'format\': \'%(f_building_id)s\', \'migrate\': True})'
p162
sg97
S'lazy_define_table'
p163
sa(dp164
g74
S'/home/chad/web2py/gluon/dal.py'
p165
sg76
(dp166
sg82
I8863
sg83
(dp167
I8864
S'                    if rfieldname not in rtable.fields:'
p168
sI8865
S'                        raise SyntaxError('
p169
sI8866
S'                            "invalid field \'%s\' for referenced table \'%s\'"'
p170
sI8867
S'                            " in table \'%s\'" % (rfieldname, rtablename, self._tablename)'
p171
sI8858
S'                    continue'
p172
sI8859
S'                rtable = db[rtablename]'
p173
sI8860
S'                if rfieldname:'
p174
sI8861
S"                    if not hasattr(rtable, '_primarykey'):"
p175
sI8862
S'                        raise SyntaxError('
p176
sI8863
S"                            'keyed tables can only reference other keyed tables (for now)')"
p177
ssg95
S'(self=<Table t_floor (id,f_building,f_floor_number,is_...e,created_on,created_by,modified_on,modified_by)>)'
p178
sg97
S'_create_references'
p179
sasS'pyver'
p180
S'Python 2.7.3: /usr/bin/python (prefix: /usr)'
p181
sS'session'
p182
g69
(S's8\x01\x00\x00<div><table><tr><td style="font-weight:bold;vertical-align:top;">last_orderby</td><td style="vertical-align:top;">:</td><td><div>None</div></td></tr><tr><td style="font-weight:bold;vertical-align:top;">last_query</td><td style="vertical-align:top;">:</td><td><div>db.t_floor.id&gt;0</div></td></tr></table></div>'
tRp183
sS'etype'
p184
S"<type 'exceptions.SyntaxError'>"
p185
sS'date'
p186
S'Sat Jul 12 10:41:37 2014'
p187
sS'response'
p188
g69
(S's\xac\x16\x00\x00<div><table><tr><td style="font-weight:bold;vertical-align:top;">body</td><td style="vertical-align:top;">:</td><td><div>&lt;cStringIO.StringO object at 0x7fd13808b5e0&gt;</div></td></tr><tr><td style="font-weight:bold;vertical-align:top;">cookies</td><td style="vertical-align:top;">:</td><td><div><table><tr><td style="font-weight:bold;vertical-align:top;">session_id_wm</td><td style="vertical-align:top;">:</td><td><div>127.0.0.1-e7ace2eb-20e5-4647-92f6-80b1753b6eaa<table><tr><td style="font-weight:bold;vertical-align:top;">comment</td><td style="vertical-align:top;">:</td><td><div></div></td></tr><tr><td style="font-weight:bold;vertical-align:top;">domain</td><td style="vertical-align:top;">:</td><td><div></div></td></tr><tr><td style="font-weight:bold;vertical-align:top;">expires</td><td style="vertical-align:top;">:</td><td><div></div></td></tr><tr><td style="font-weight:bold;vertical-align:top;">httponly</td><td style="vertical-align:top;">:</td><td><div></div></td></tr><tr><td style="font-weight:bold;vertical-align:top;">max-age</td><td style="vertical-align:top;">:</td><td><div></div></td></tr><tr><td style="font-weight:bold;vertical-align:top;">path</td><td style="vertical-align:top;">:</td><td><div>/</div></td></tr><tr><td style="font-weight:bold;vertical-align:top;">secure</td><td style="vertical-align:top;">:</td><td><div></div></td></tr><tr><td style="font-weight:bold;vertical-align:top;">version</td><td style="vertical-align:top;">:</td><td><div></div></td></tr></table></div></td></tr></table></div></td></tr><tr><td style="font-weight:bold;vertical-align:top;">delimiters</td><td style="vertical-align:top;">:</td><td><div><table><tr><td><div>{{</div></td></tr><tr><td><div>}}</div></td></tr></table></div></td></tr><tr><td style="font-weight:bold;vertical-align:top;">files</td><td style="vertical-align:top;">:</td><td><div><table></table></div></td></tr><tr><td style="font-weight:bold;vertical-align:top;">flash</td><td style="vertical-align:top;">:</td><td><div></div></td></tr><tr><td style="font-weight:bold;vertical-align:top;">generic_patterns</td><td style="vertical-align:top;">:</td><td><div><table><tr><td><div>*</div></td></tr></table></div></td></tr><tr><td style="font-weight:bold;vertical-align:top;">headers</td><td style="vertical-align:top;">:</td><td><div><table><tr><td style="font-weight:bold;vertical-align:top;">X-Powered-By</td><td style="vertical-align:top;">:</td><td><div>web2py</div></td></tr></table></div></td></tr><tr><td style="font-weight:bold;vertical-align:top;">menu</td><td style="vertical-align:top;">:</td><td><div><table></table></div></td></tr><tr><td style="font-weight:bold;vertical-align:top;">meta</td><td style="vertical-align:top;">:</td><td><div><table></table></div></td></tr><tr><td style="font-weight:bold;vertical-align:top;">models_to_run</td><td style="vertical-align:top;">:</td><td><div><table><tr><td><div>^\\w+\\.py$</div></td></tr><tr><td><div>^appadmin/\\w+\\.py$</div></td></tr><tr><td><div>^appadmin/index/\\w+\\.py$</div></td></tr></table></div></td></tr><tr><td style="font-weight:bold;vertical-align:top;">postprocessing</td><td style="vertical-align:top;">:</td><td><div><table></table></div></td></tr><tr><td style="font-weight:bold;vertical-align:top;">session_client</td><td style="vertical-align:top;">:</td><td><div>127.0.0.1</div></td></tr><tr><td style="font-weight:bold;vertical-align:top;">session_cookie_compression_level</td><td style="vertical-align:top;">:</td><td><div>None</div></td></tr><tr><td style="font-weight:bold;vertical-align:top;">session_cookie_expires</td><td style="vertical-align:top;">:</td><td><div>None</div></td></tr><tr><td style="font-weight:bold;vertical-align:top;">session_cookie_key</td><td style="vertical-align:top;">:</td><td><div>None</div></td></tr><tr><td style="font-weight:bold;vertical-align:top;">session_data_name</td><td style="vertical-align:top;">:</td><td><div>session_data_wm</div></td></tr><tr><td style="font-weight:bold;vertical-align:top;">session_file</td><td style="vertical-align:top;">:</td><td><div>&lt;open file &#x27;/home/chad/web2py/applications/wm/sessions/127.0.0.1-e7ace2eb-20e5-4647-92f6-80b1753b6eaa&#x27;, mode &#x27;rb+&#x27; at 0x7fd12c215660&gt;</div></td></tr><tr><td style="font-weight:bold;vertical-align:top;">session_filename</td><td style="vertical-align:top;">:</td><td><div>/home/chad/web2py/applications/wm/sessions/127.0.0.1-e7ace2eb-20e5-4647-92f6-80b1753b6eaa</div></td></tr><tr><td style="font-weight:bold;vertical-align:top;">session_hash</td><td style="vertical-align:top;">:</td><td><div>68477e3f81316044aabde8bdf8a4a57e</div></td></tr><tr><td style="font-weight:bold;vertical-align:top;">session_id</td><td style="vertical-align:top;">:</td><td><div>127.0.0.1-e7ace2eb-20e5-4647-92f6-80b1753b6eaa</div></td></tr><tr><td style="font-weight:bold;vertical-align:top;">session_id_name</td><td style="vertical-align:top;">:</td><td><div>session_id_wm</div></td></tr><tr><td style="font-weight:bold;vertical-align:top;">session_locked</td><td style="vertical-align:top;">:</td><td><div>True</div></td></tr><tr><td style="font-weight:bold;vertical-align:top;">session_masterapp</td><td style="vertical-align:top;">:</td><td><div>wm</div></td></tr><tr><td style="font-weight:bold;vertical-align:top;">session_new</td><td style="vertical-align:top;">:</td><td><div>False</div></td></tr><tr><td style="font-weight:bold;vertical-align:top;">session_storage_type</td><td style="vertical-align:top;">:</td><td><div>file</div></td></tr><tr><td style="font-weight:bold;vertical-align:top;">status</td><td style="vertical-align:top;">:</td><td><div>200</div></td></tr><tr><td style="font-weight:bold;vertical-align:top;">view</td><td style="vertical-align:top;">:</td><td><div>appadmin/index.html</div></td></tr></table></div>'
tRp189
sS'locals'
p190
(dp191
S'pr'
p192
g21
sS'field_type'
p193
S"'reference t_building.f_building_number'"
p194
sS'rtablename'
p195
S"'t_building'"
p196
sS'rfieldname'
p197
S"'f_building_number'"
p198
sS'self'
p199
S'<Table t_floor (id,f_building,f_floor_number,is_...e,created_on,created_by,modified_on,modified_by)>'
p200
sS'db'
p201
S'<DAL uri="sqlite://storage.sqlite">'
p202
sS'rtable'
p203
S'<Table t_building (id,f_building_number,f_buildi...e,created_on,created_by,modified_on,modified_by)>'
p204
sS'throw_it'
p205
S"'.'"
p206
sS'field'
p207
S'<gluon.dal.Field object>'
p208
sS'ref'
p209
S"'t_building.f_building_number'"
p210
sssS'traceback'
p211
S'Traceback (most recent call last):\n  File "/home/chad/web2py/gluon/restricted.py", line 220, in restricted\n    exec ccode in environment\n  File "/home/chad/web2py/applications/wm/models/db_wizard.py", line 72, in <module>\n    migrate=settings.migrate)\n  File "/home/chad/web2py/gluon/dal.py", line 8223, in define_table\n    table = self.lazy_define_table(tablename,*fields,**args)\n  File "/home/chad/web2py/gluon/dal.py", line 8244, in lazy_define_table\n    table._create_references()\n  File "/home/chad/web2py/gluon/dal.py", line 8863, in _create_references\n    \'keyed tables can only reference other keyed tables (for now)\')\nSyntaxError: keyed tables can only reference other keyed tables (for now)\n'
p212
s.